 mcf6

 Timestamp is 5e533eab (Mon Feb 24 11:10:35 2020)

 Preferred load address is 00400000

 Start         Length     Name                   Class
 0001:00000000 000013b0H .text$di                CODE
 0001:000013b0 0000f8a0H .text$mn                CODE
 0001:00010c50 00000740H .text$x                 CODE
 0001:00011390 000001f6H .text$yd                CODE
 0002:00000000 000005d4H .idata$5                DATA
 0002:000005d4 00000004H .00cfg                  DATA
 0002:000005d8 00000004H .CRT$XCA                DATA
 0002:000005dc 00000004H .CRT$XCAA               DATA
 0002:000005e0 00000008H .CRT$XCL                DATA
 0002:000005e8 0000006cH .CRT$XCU                DATA
 0002:00000654 00000004H .CRT$XCZ                DATA
 0002:00000658 00000004H .CRT$XIA                DATA
 0002:0000065c 00000004H .CRT$XIAA               DATA
 0002:00000660 00000004H .CRT$XIAC               DATA
 0002:00000664 00000004H .CRT$XIC                DATA
 0002:00000668 00000004H .CRT$XIZ                DATA
 0002:0000066c 00000004H .CRT$XLA                DATA
 0002:00000670 00000004H .CRT$XLZ                DATA
 0002:00000674 00000004H .CRT$XPA                DATA
 0002:00000678 00000004H .CRT$XPZ                DATA
 0002:0000067c 00000004H .CRT$XTA                DATA
 0002:00000680 00000010H .CRT$XTZ                DATA
 0002:00000684 00000000H .gfids$y                DATA
 0002:00000690 00004d4cH .rdata                  DATA
 0002:000053dc 00000018H .rdata$T                DATA
 0002:000053f4 000003bcH .rdata$r                DATA
 0002:000057b0 0000005cH .rdata$sxdata           DATA
 0002:0000580c 0000042cH .rdata$zzzdbg           DATA
 0002:00005c38 00000004H .rtc$IAA                DATA
 0002:00005c3c 0000001cH .rtc$IMZ                DATA
 0002:00005c58 00000004H .rtc$IZZ                DATA
 0002:00005c5c 00000004H .rtc$TAA                DATA
 0002:00005c60 0000001cH .rtc$TMZ                DATA
 0002:00005c7c 00000004H .rtc$TZZ                DATA
 0002:00005c80 00000004H .tls                    DATA
 0002:00005c84 00000004H .tls$                   DATA
 0002:00005c88 00000008H .tls$ZZZ                DATA
 0002:00005c90 000005d4H .xdata$x                DATA
 0002:00006264 00000004H ATL$__a                 DATA
 0002:00006268 00000004H ATL$__z                 DATA
 0002:0000626c 00000000H .edata                  DATA
 0002:0000626c 000000b4H .idata$2                DATA
 0002:00006320 00000014H .idata$3                DATA
 0002:00006334 000005d4H .idata$4                DATA
 0002:00006908 000009ceH .idata$6                DATA
 0003:00000000 0000004cH .data                   DATA
 0003:0000004c 00000174H .data$r                 DATA
 0003:000001c0 00002684H .bss                    DATA
 0004:00000000 00000370H .rsrc$01                DATA
 0004:00000370 00006048H .rsrc$02                DATA

  Address         Publics by Value              Rva+Base       Lib:Object

 0000:00000000       ___hybrid_code_map_count   00000000     <absolute>
 0000:00000000       ___enclave_config          00000000     <absolute>
 0000:00000000       ___volatile_metadata       00000000     <absolute>
 0000:00000000       ___guard_iat_table         00000000     <absolute>
 0000:00000000       ___guard_longjmp_table     00000000     <absolute>
 0000:00000000       ___hybrid_code_map         00000000     <absolute>
 0000:00000000       ___guard_fids_table        00000000     <absolute>
 0000:00000000       ___guard_longjmp_count     00000000     <absolute>
 0000:00000000       ___AbsoluteZero            00000000     <absolute>
 0000:00000000       ___hybrid_auxiliary_iat    00000000     <absolute>
 0000:00000000       ___guard_iat_count         00000000     <absolute>
 0000:00000000       ___dynamic_value_reloc_table 00000000     <absolute>
 0000:00000000       ___guard_fids_count        00000000     <absolute>
 0000:00000017       ___safe_se_handler_count   00000017     <absolute>
 0000:0000002c       __tls_array                0000002c     <absolute>
 0000:00000100       ___guard_flags             00000100     <absolute>
 0000:00000000       ___ImageBase               00400000     <linker-defined>
 0001:000013b0       ??0Cmcf6App@@QAE@XZ        004023b0 f   mcf6.obj
 0001:00001400       ??1CBitmapButton@@UAE@XZ   00402400 f i mcf6.obj
 0001:00001480       ??1Cmcf6App@@UAE@XZ        00402480 f i mcf6.obj
 0001:000014c0       ??1Cmcf6Dlg@@UAE@XZ        004024c0 f i mcf6.obj
 0001:00001650       ??_ECmcf6App@@UAEPAXI@Z    00402650 f i mcf6.obj
 0001:00001650       ??_GCmcf6App@@UAEPAXI@Z    00402650 f i mcf6.obj
 0001:000016c0       ?GetApplicationRecoveryParameter@CWinApp@@UAEPAXXZ 004026c0 f i mcf6.obj
 0001:000016f0       ?GetApplicationRecoveryPingInterval@CWinApp@@UAEKXZ 004026f0 f i mcf6.obj
 0001:00001720       ?GetApplicationRestartFlags@CWinApp@@UAEKXZ 00402720 f i mcf6.obj
 0001:00001750       ?GetMessageMap@Cmcf6App@@MBEPBUAFX_MSGMAP@@XZ 00402750 f   mcf6.obj
 0001:00001790       ?GetThisMessageMap@Cmcf6App@@KGPBUAFX_MSGMAP@@XZ 00402790 f   mcf6.obj
 0001:000017c0       ?InitInstance@Cmcf6App@@UAEHXZ 004027c0 f   mcf6.obj
 0001:00001910       ?ReopenPreviousFilesAtRestart@CWinApp@@UBEHXZ 00402910 f i mcf6.obj
 0001:00001950       ?RestoreAutosavedFilesAtRestart@CWinApp@@UBEHXZ 00402950 f i mcf6.obj
 0001:00001990       ?SupportsApplicationRecovery@CWinApp@@UBEHXZ 00402990 f i mcf6.obj
 0001:000019d0       ?SupportsAutosaveAtInterval@CWinApp@@UBEHXZ 004029d0 f i mcf6.obj
 0001:00001a10       ?SupportsAutosaveAtRestart@CWinApp@@UBEHXZ 00402a10 f i mcf6.obj
 0001:00001a50       ?SupportsRestartManager@CWinApp@@UBEHXZ 00402a50 f i mcf6.obj
 0001:00001a90       ?__empty_global_delete@@YAXPAX@Z 00402a90 f i mcf6.obj
 0001:00001ac0       ?__empty_global_delete@@YAXPAXI@Z 00402ac0 f i mcf6.obj
 0001:00001ac0       ?__global_delete@@YAXPAXI@Z 00402ac0 f i mcf6.obj
 0001:00001af0       ?OnSysCommand@Cmcf6Dlg@@IAEXIJ@Z 00402af0 f   mcf6Dlg.obj
 0001:00001be0       ?OnPaint@Cmcf6Dlg@@IAEXXZ  00402be0 f   mcf6Dlg.obj
 0001:00001d80       ?OnQueryDragIcon@Cmcf6Dlg@@IAEPAUHICON__@@XZ 00402d80 f   mcf6Dlg.obj
 0001:00001dc0       ?OnBnClickedButton1@Cmcf6Dlg@@QAEXXZ 00402dc0 f   mcf6Dlg.obj
 0001:00001ee0       ?OnBnClickedButton2@Cmcf6Dlg@@QAEXXZ 00402ee0 f   mcf6Dlg.obj
 0001:00001fa0       ?OnLvnItemchangedList1@Cmcf6Dlg@@QAEXPAUtagNMHDR@@PAJ@Z 00402fa0 f   mcf6Dlg.obj
 0001:00002030       ?OnNMCustomdrawList1@Cmcf6Dlg@@QAEXPAUtagNMHDR@@PAJ@Z 00403030 f   mcf6Dlg.obj
 0001:00002270       ?OnBnClickedButton5@Cmcf6Dlg@@QAEXXZ 00403270 f   mcf6Dlg.obj
 0001:000022b0       ?OnBnClickedButton4@Cmcf6Dlg@@QAEXXZ 004032b0 f   mcf6Dlg.obj
 0001:00002440       ??0?$CTraceCategoryEx@$0CAAA@$0A@@ATL@@QAE@PB_W@Z 00403440 f i mcf6Dlg.obj
 0001:00002490       ??0?$CTraceCategoryEx@$0CAAAA@$0A@@ATL@@QAE@PB_W@Z 00403490 f i mcf6Dlg.obj
 0001:000024e0       ??0CAboutDlg@@QAE@XZ       004034e0 f   mcf6Dlg.obj
 0001:00002530       ??0CRect@@QAE@XZ           00403530 f i mcf6Dlg.obj
 0001:00002590       ??0Cmcf6Dlg@@QAE@PAVCWnd@@@Z 00403590 f   mcf6Dlg.obj
 0001:000027e0       ??1CAboutDlg@@UAE@XZ       004037e0 f i mcf6Dlg.obj
 0001:00002820       ??HATL@@YA?AV?$CStringT@_WV?$StrTraitMFC_DLL@_WV?$ChTraitsCRT@_W@ATL@@@@@0@PB_WABV10@@Z 00403820 f i mcf6Dlg.obj
 0001:00002980       ??_ECAboutDlg@@UAEPAXI@Z   00403980 f i mcf6Dlg.obj
 0001:00002980       ??_GCAboutDlg@@UAEPAXI@Z   00403980 f i mcf6Dlg.obj
 0001:000029f0       ??_ECmcf6Dlg@@UAEPAXI@Z    004039f0 f i mcf6Dlg.obj
 0001:000029f0       ??_GCmcf6Dlg@@UAEPAXI@Z    004039f0 f i mcf6Dlg.obj
 0001:00002a60       ?DoDataExchange@CAboutDlg@@MAEXPAVCDataExchange@@@Z 00403a60 f   mcf6Dlg.obj
 0001:00002ab0       ?DoDataExchange@Cmcf6Dlg@@MAEXPAVCDataExchange@@@Z 00403ab0 f   mcf6Dlg.obj
 0001:00002cb0       ?GetMessageMap@CAboutDlg@@MBEPBUAFX_MSGMAP@@XZ 00403cb0 f   mcf6Dlg.obj
 0001:00002cf0       ?GetMessageMap@Cmcf6Dlg@@MBEPBUAFX_MSGMAP@@XZ 00403cf0 f   mcf6Dlg.obj
 0001:00002d30       ?GetThisMessageMap@CAboutDlg@@KGPBUAFX_MSGMAP@@XZ 00403d30 f   mcf6Dlg.obj
 0001:00002d60       ?GetThisMessageMap@Cmcf6Dlg@@KGPBUAFX_MSGMAP@@XZ 00403d60 f   mcf6Dlg.obj
 0001:00002d90       ?Height@CRect@@QBEHXZ      00403d90 f i mcf6Dlg.obj
 0001:00002de0       ?OnInitDialog@Cmcf6Dlg@@MAEHXZ 00403de0 f   mcf6Dlg.obj
 0001:00003200       ?RegisterCategory@CTrace@ATL@@SAXPB_WI@Z 00404200 f i mcf6Dlg.obj
 0001:000032d0       ?Width@CRect@@QBEHXZ       004042d0 f i mcf6Dlg.obj
 0001:00003310       ?lixsinff_CapThread@@YGKPAX@Z 00404310 f   mcf6Dlg.obj
 0001:00004050       ?lixsniff_initCap@Cmcf6Dlg@@QAEHXZ 00405050 f   mcf6Dlg.obj
 0001:00004110       ?lixsniff_readFile@Cmcf6Dlg@@QAEHV?$CStringT@_WV?$StrTraitMFC_DLL@_WV?$ChTraitsCRT@_W@ATL@@@@@ATL@@@Z 00405110 f   mcf6Dlg.obj
 0001:00005040       ?lixsniff_saveFile@Cmcf6Dlg@@QAEHXZ 00406040 f   mcf6Dlg.obj
 0001:00005300       ?lixsniff_startCap@Cmcf6Dlg@@QAEHXZ 00406300 f   mcf6Dlg.obj
 0001:00005af0       ?lixsniff_updateEdit@Cmcf6Dlg@@QAEHH@Z 00406af0 f   mcf6Dlg.obj
 0001:00005c50       ?lixsniff_updateNPacket@Cmcf6Dlg@@QAEHXZ 00406c50 f   mcf6Dlg.obj
 0001:00005fe0       ?lixsniff_updateTree@Cmcf6Dlg@@QAEHH@Z 00406fe0 f   mcf6Dlg.obj
 0001:00008460       ?_AfxInitManaged@@YAHXZ    00409460 f i stdafx.obj
 0001:00008490       ??$AtlAdd@H@ATL@@YAJPAHHH@Z 00409490 f i stdafx.obj
 0001:000084f0       ??$AtlAdd@I@ATL@@YAJPAIII@Z 004094f0 f i stdafx.obj
 0001:00008550       ??$AtlAdd@K@ATL@@YAJPAKKK@Z 00409550 f i stdafx.obj
 0001:000085b0       ??$AtlAlignUp@H@ATL@@YGHHK@Z 004095b0 f i stdafx.obj
 0001:000085f0       ??$AtlMultiply@I@ATL@@YAJPAIII@Z 004095f0 f i stdafx.obj
 0001:00008660       ??$AtlMultiply@K@ATL@@YAJPAKKK@Z 00409660 f i stdafx.obj
 0001:000086d0       ??0?$CHeapPtr@_WVCCRTAllocator@ATL@@@ATL@@QAE@XZ 004096d0 f i stdafx.obj
 0001:00008720       ??0?$CHeapPtrBase@_WVCCRTAllocator@ATL@@@ATL@@IAE@XZ 00409720 f i stdafx.obj
 0001:00008760       ??0?$CSimpleArray@GV?$CSimpleArrayEqualHelper@G@ATL@@@ATL@@QAE@XZ 00409760 f i stdafx.obj
 0001:000087b0       ??0?$CTraceCategoryEx@$00$0A@@ATL@@QAE@PB_W@Z 004097b0 f i stdafx.obj
 0001:00008800       ??0?$CTraceCategoryEx@$01$0A@@ATL@@QAE@PB_W@Z 00409800 f i stdafx.obj
 0001:00008850       ??0?$CTraceCategoryEx@$03$0A@@ATL@@QAE@PB_W@Z 00409850 f i stdafx.obj
 0001:000088a0       ??0?$CTraceCategoryEx@$07$0A@@ATL@@QAE@PB_W@Z 004098a0 f i stdafx.obj
 0001:000088f0       ??0?$CTraceCategoryEx@$0BA@$0A@@ATL@@QAE@PB_W@Z 004098f0 f i stdafx.obj
 0001:00008940       ??0?$CTraceCategoryEx@$0BAA@$0A@@ATL@@QAE@PB_W@Z 00409940 f i stdafx.obj
 0001:00008990       ??0?$CTraceCategoryEx@$0BAAA@$0A@@ATL@@QAE@PB_W@Z 00409990 f i stdafx.obj
 0001:000089e0       ??0?$CTraceCategoryEx@$0BAAAA@$0A@@ATL@@QAE@PB_W@Z 004099e0 f i stdafx.obj
 0001:00008a30       ??0?$CTraceCategoryEx@$0BAAAAA@$0A@@ATL@@QAE@PB_W@Z 00409a30 f i stdafx.obj
 0001:00008a80       ??0?$CTraceCategoryEx@$0CA@$0A@@ATL@@QAE@PB_W@Z 00409a80 f i stdafx.obj
 0001:00008ad0       ??0?$CTraceCategoryEx@$0CAA@$0A@@ATL@@QAE@PB_W@Z 00409ad0 f i stdafx.obj
 0001:00008b20       ??0?$CTraceCategoryEx@$0CAAAAA@$0A@@ATL@@QAE@PB_W@Z 00409b20 f i stdafx.obj
 0001:00008b70       ??0?$CTraceCategoryEx@$0EA@$0A@@ATL@@QAE@PB_W@Z 00409b70 f i stdafx.obj
 0001:00008bc0       ??0?$CTraceCategoryEx@$0EAA@$0A@@ATL@@QAE@PB_W@Z 00409bc0 f i stdafx.obj
 0001:00008c10       ??0?$CTraceCategoryEx@$0EAAA@$0A@@ATL@@QAE@PB_W@Z 00409c10 f i stdafx.obj
 0001:00008c60       ??0?$CTraceCategoryEx@$0EAAAA@$0A@@ATL@@QAE@PB_W@Z 00409c60 f i stdafx.obj
 0001:00008cb0       ??0?$CTraceCategoryEx@$0EAAAAA@$0A@@ATL@@QAE@PB_W@Z 00409cb0 f i stdafx.obj
 0001:00008d00       ??0?$CTraceCategoryEx@$0IA@$0A@@ATL@@QAE@PB_W@Z 00409d00 f i stdafx.obj
 0001:00008d50       ??0?$CTraceCategoryEx@$0IAA@$0A@@ATL@@QAE@PB_W@Z 00409d50 f i stdafx.obj
 0001:00008da0       ??0?$CTraceCategoryEx@$0IAAA@$0A@@ATL@@QAE@PB_W@Z 00409da0 f i stdafx.obj
 0001:00008df0       ??0?$CTraceCategoryEx@$0IAAAA@$0A@@ATL@@QAE@PB_W@Z 00409df0 f i stdafx.obj
 0001:00008e40       ??0CAtlComModule@ATL@@QAE@XZ 00409e40 f i stdafx.obj
 0001:00008f30       ??0CAtlStringMgr@ATL@@QAE@PAUIAtlMemMgr@1@@Z 00409f30 f i stdafx.obj
 0001:00008fa0       ??0CAtlStringMgrStaticInitializer@ATLImplementationDetails@ATL@@QAE@XZ 00409fa0 f i stdafx.obj
 0001:00008fe0       ??0CAtlWinModule@ATL@@QAE@XZ 00409fe0 f i stdafx.obj
 0001:00009090       ??0CComCriticalSection@ATL@@QAE@XZ 0040a090 f i stdafx.obj
 0001:000090e0       ??0CNilStringData@ATL@@QAE@XZ 0040a0e0 f i stdafx.obj
 0001:00009160       ??0CPreserveLastError@ATL@@QAE@XZ 0040a160 f i stdafx.obj
 0001:000091b0       ??0CTraceFileAndLineInfo@ATL@@QAE@PBDH@Z 0040a1b0 f i stdafx.obj
 0001:000091f0       ??0CWin32Heap@ATL@@QAE@PAX@Z 0040a1f0 f i stdafx.obj
 0001:00009280       ??0_ATL_COM_MODULE70@ATL@@QAE@XZ 0040a280 f i stdafx.obj
 0001:000092d0       ??0_ATL_WIN_MODULE70@ATL@@QAE@XZ 0040a2d0 f i stdafx.obj
 0001:00009360       ??1?$CHeapPtr@_WVCCRTAllocator@ATL@@@ATL@@QAE@XZ 0040a360 f i stdafx.obj
 0001:000093a0       ??1?$CHeapPtrBase@_WVCCRTAllocator@ATL@@@ATL@@QAE@XZ 0040a3a0 f i stdafx.obj
 0001:000093e0       ??1?$CSimpleArray@GV?$CSimpleArrayEqualHelper@G@ATL@@@ATL@@QAE@XZ 0040a3e0 f i stdafx.obj
 0001:00009450       ??1CAtlComModule@ATL@@QAE@XZ 0040a450 f i stdafx.obj
 0001:000094d0       ??1CAtlStringMgr@ATL@@UAE@XZ 0040a4d0 f i stdafx.obj
 0001:00009500       ??1CAtlWinModule@ATL@@QAE@XZ 0040a500 f i stdafx.obj
 0001:00009580       ??1CComCriticalSection@ATL@@QAE@XZ 0040a580 f i stdafx.obj
 0001:000095b0       ??1CPreserveLastError@ATL@@QAE@XZ 0040a5b0 f i stdafx.obj
 0001:00009600       ??1CWin32Heap@ATL@@UAE@XZ  0040a600 f i stdafx.obj
 0001:000096a0       ??1_ATL_COM_MODULE70@ATL@@QAE@XZ 0040a6a0 f i stdafx.obj
 0001:000096f0       ??1_ATL_WIN_MODULE70@ATL@@QAE@XZ 0040a6f0 f i stdafx.obj
 0001:00009740       ??A?$CSimpleArray@GV?$CSimpleArrayEqualHelper@G@ATL@@@ATL@@QAEAAGH@Z 0040a740 f i stdafx.obj
 0001:000097f0       ??B?$CHeapPtrBase@_WVCCRTAllocator@ATL@@@ATL@@QBEPA_WXZ 0040a7f0 f i stdafx.obj
 0001:00009820       ??B?$CTraceCategoryEx@$01$0A@@ATL@@QAEIXZ 0040a820 f i stdafx.obj
 0001:00009850       ??B?$CTraceCategoryEx@$0CA@$0A@@ATL@@QAEIXZ 0040a850 f i stdafx.obj
 0001:00009880       ??RCTraceFileAndLineInfo@ATL@@QBAXHIPB_WZZ 0040a880 f i stdafx.obj
 0001:00009960       ??_GCAtlStringMgr@ATL@@UAEPAXI@Z 0040a960 f i stdafx.obj
 0001:00009960       ??_ECAtlStringMgr@ATL@@UAEPAXI@Z 0040a960 f i stdafx.obj
 0001:000099c0       ??_ECWin32Heap@ATL@@UAEPAXI@Z 0040a9c0 f i stdafx.obj
 0001:000099c0       ??_GCWin32Heap@ATL@@UAEPAXI@Z 0040a9c0 f i stdafx.obj
 0001:00009a20       ??_H@YGXPAXIIP6EPAX0@Z@Z   0040aa20 f i stdafx.obj
 0001:00009ab0       ?AddRef@CStringData@ATL@@QAEXXZ 0040aab0 f i stdafx.obj
 0001:00009b30       ?Allocate@?$CHeapPtr@_WVCCRTAllocator@ATL@@@ATL@@QAE_NI@Z 0040ab30 f i stdafx.obj
 0001:00009bd0       ?Allocate@CAtlStringMgr@ATL@@UAEPAUCStringData@2@HH@Z 0040abd0 f i stdafx.obj
 0001:00009de0       ?Allocate@CCRTAllocator@ATL@@SAPAXI@Z 0040ade0 f i stdafx.obj
 0001:00009e30       ?Allocate@CWin32Heap@ATL@@UAEPAXI@Z 0040ae30 f i stdafx.obj
 0001:00009e90       ?AllocateBytes@?$CHeapPtrBase@_WVCCRTAllocator@ATL@@@ATL@@QAE_NI@Z 0040ae90 f i stdafx.obj
 0001:00009f20       ?AtlWinModuleInit@ATL@@YGJPAU_ATL_WIN_MODULE70@1@@Z 0040af20 f i stdafx.obj
 0001:0000a010       ?AtlWinModuleTerm@ATL@@YGJPAU_ATL_WIN_MODULE70@1@PAUHINSTANCE__@@@Z 0040b010 f i stdafx.obj
 0001:0000a0e0       ?Clone@CAtlStringMgr@ATL@@UAEPAUIAtlStringMgr@2@XZ 0040b0e0 f i stdafx.obj
 0001:0000a110       ?Free@?$CHeapPtrBase@_WVCCRTAllocator@ATL@@@ATL@@QAEXXZ 0040b110 f i stdafx.obj
 0001:0000a160       ?Free@CAtlStringMgr@ATL@@UAEXPAUCStringData@2@@Z 0040b160 f i stdafx.obj
 0001:0000a230       ?Free@CCRTAllocator@ATL@@SAXPAX@Z 0040b230 f i stdafx.obj
 0001:0000a280       ?Free@CWin32Heap@ATL@@UAEXPAX@Z 0040b280 f i stdafx.obj
 0001:0000a320       ?GetCategoryName@CTrace@ATL@@CAPA_WI@Z 0040b320 f i stdafx.obj
 0001:0000a390       ?GetInstance@CAtlStringMgr@ATL@@SAPAUIAtlStringMgr@2@XZ 0040b390 f i stdafx.obj
 0001:0000a490       ?GetModuleInstance@CAtlBaseModule@ATL@@QAEPAUHINSTANCE__@@XZ 0040b490 f i stdafx.obj
 0001:0000a4c0       ?GetNilString@CAtlStringMgr@ATL@@UAEPAUCStringData@2@XZ 0040b4c0 f i stdafx.obj
 0001:0000a510       ?GetSize@?$CSimpleArray@GV?$CSimpleArrayEqualHelper@G@ATL@@@ATL@@QBEHXZ 0040b510 f i stdafx.obj
 0001:0000a540       ?GetSize@CWin32Heap@ATL@@UAEIPAX@Z 0040b540 f i stdafx.obj
 0001:0000a5a0       ?Init@CComCriticalSection@ATL@@QAEJXZ 0040b5a0 f i stdafx.obj
 0001:0000a610       ?Reallocate@CAtlStringMgr@ATL@@UAEPAUCStringData@2@PAU32@HH@Z 0040b610 f i stdafx.obj
 0001:0000a840       ?Reallocate@CWin32Heap@ATL@@UAEPAXPAXI@Z 0040b840 f i stdafx.obj
 0001:0000a8e0       ?RemoveAll@?$CSimpleArray@GV?$CSimpleArrayEqualHelper@G@ATL@@@ATL@@QAEXXZ 0040b8e0 f i stdafx.obj
 0001:0000a980       ?SetManager@CNilStringData@ATL@@QAEXPAUIAtlStringMgr@2@@Z 0040b980 f i stdafx.obj
 0001:0000aa00       ?Term@CAtlComModule@ATL@@QAEXXZ 0040ba00 f i stdafx.obj
 0001:0000aad0       ?Term@CAtlWinModule@ATL@@QAEXXZ 0040bad0 f i stdafx.obj
 0001:0000ab20       ?Term@CComCriticalSection@ATL@@QAEJXZ 0040bb20 f i stdafx.obj
 0001:0000ab70       ?TraceV@CTrace@ATL@@CAXPBDHIIPB_W@Z 0040bb70 f i stdafx.obj
 0001:0000ae10       ?TraceV@CTrace@ATL@@SAXPBDHIIPB_WPAD@Z 0040be10 f i stdafx.obj
 0001:0000afc0       ?_AtlInitializeCriticalSectionEx@ATL@@YAHPAU_RTL_CRITICAL_SECTION@@KK@Z 0040bfc0 f i stdafx.obj
 0001:0000b010       ?_AtlRaiseException@ATL@@YAXKK@Z 0040c010 f i stdafx.obj
 0001:0000b060       _HRESULT_FROM_WIN32        0040c060 f i stdafx.obj
 0001:0000b0c0       ___local_stdio_printf_options 0040c0c0 f i stdafx.obj
 0001:0000b0f0       __vswprintf_s_l            0040c0f0 f i stdafx.obj
 0001:0000b180       _swprintf_s                0040c180 f i stdafx.obj
 0001:0000b1e0       ?analyze_arp@@YAHPBEPAUdatapkt@@PAUpktcount@@@Z 0040c1e0 f   utilities.obj
 0001:0000b360       ?analyze_frame@@YAHPBEPAUdatapkt@@PAUpktcount@@@Z 0040c360 f   utilities.obj
 0001:0000b4e0       ?analyze_icmp6@@YAHPBEPAUdatapkt@@PAUpktcount@@@Z 0040c4e0 f   utilities.obj
 0001:0000b5f0       ?analyze_icmp@@YAHPBEPAUdatapkt@@PAUpktcount@@@Z 0040c5f0 f   utilities.obj
 0001:0000b6b0       ?analyze_ip6@@YAHPBEPAUdatapkt@@PAUpktcount@@@Z 0040c6b0 f   utilities.obj
 0001:0000b8b0       ?analyze_ip@@YAHPBEPAUdatapkt@@PAUpktcount@@@Z 0040c8b0 f   utilities.obj
 0001:0000bab0       ?analyze_tcp@@YAHPBEPAUdatapkt@@PAUpktcount@@@Z 0040cab0 f   utilities.obj
 0001:0000be30       ?analyze_udp@@YAHPBEPAUdatapkt@@PAUpktcount@@@Z 0040ce30 f   utilities.obj
 0001:0000bf30       ?print_packet_hex@@YAXPBEHPAV?$CStringT@_WV?$StrTraitMFC_DLL@_WV?$ChTraitsCRT@_W@ATL@@@@@ATL@@@Z 0040cf30 f   utilities.obj
 0001:0000c158       _pcap_open_live            0040d158 f   wpcap:wpcap.dll
 0001:0000c15e       _pcap_open_offline         0040d15e f   wpcap:wpcap.dll
 0001:0000c164       _pcap_close                0040d164 f   wpcap:wpcap.dll
 0001:0000c16a       _pcap_next_ex              0040d16a f   wpcap:wpcap.dll
 0001:0000c170       _pcap_setfilter            0040d170 f   wpcap:wpcap.dll
 0001:0000c176       _pcap_compile              0040d176 f   wpcap:wpcap.dll
 0001:0000c17c       _pcap_datalink             0040d17c f   wpcap:wpcap.dll
 0001:0000c182       _pcap_dump_open            0040d182 f   wpcap:wpcap.dll
 0001:0000c188       _pcap_dump                 0040d188 f   wpcap:wpcap.dll
 0001:0000c18e       _pcap_findalldevs          0040d18e f   wpcap:wpcap.dll
 0001:0000c194       _pcap_freealldevs          0040d194 f   wpcap:wpcap.dll
 0001:0000c19a       _inet_ntoa@4               0040d19a f   ws2_32:WS2_32.dll
 0001:0000c1a0       _ntohs@4                   0040d1a0 f   ws2_32:WS2_32.dll
 0001:0000c1a6       ?OnHelp@CWinApp@@IAEXXZ    0040d1a6 f   mfc140ud:mfc140ud.dll
 0001:0000c1ac       ?GetThisMessageMap@CWinApp@@KGPBUAFX_MSGMAP@@XZ 0040d1ac f   mfc140ud:mfc140ud.dll
 0001:0000c1b2       ??3CObject@@SGXPAX@Z       0040d1b2 f   mfc140ud:mfc140ud.dll
 0001:0000c1b8       ?Serialize@CObject@@UAEXAAVCArchive@@@Z 0040d1b8 f   mfc140ud:mfc140ud.dll
 0001:0000c1be       ??1CPtrList@@UAE@XZ        0040d1be f   mfc140ud:mfc140ud.dll
 0001:0000c1c4       ??1CBitmap@@UAE@XZ         0040d1c4 f   mfc140ud:mfc140ud.dll
 0001:0000c1ca       ?OnCmdMsg@CCmdTarget@@UAEHIHPAXPAUAFX_CMDHANDLERINFO@@@Z 0040d1ca f   mfc140ud:mfc140ud.dll
 0001:0000c1d0       ?OnFinalRelease@CCmdTarget@@UAEXXZ 0040d1d0 f   mfc140ud:mfc140ud.dll
 0001:0000c1d6       ?IsInvokeAllowed@CCmdTarget@@UAEHJ@Z 0040d1d6 f   mfc140ud:mfc140ud.dll
 0001:0000c1dc       ?GetDispatchIID@CCmdTarget@@UAEHPAU_GUID@@@Z 0040d1dc f   mfc140ud:mfc140ud.dll
 0001:0000c1e2       ?GetTypeInfoCount@CCmdTarget@@UAEIXZ 0040d1e2 f   mfc140ud:mfc140ud.dll
 0001:0000c1e8       ?GetTypeLibCache@CCmdTarget@@UAEPAVCTypeLibCache@@XZ 0040d1e8 f   mfc140ud:mfc140ud.dll
 0001:0000c1ee       ?GetTypeLib@CCmdTarget@@UAEJKPAPAUITypeLib@@@Z 0040d1ee f   mfc140ud:mfc140ud.dll
 0001:0000c1f4       ?GetCommandMap@CCmdTarget@@MBEPBUAFX_OLECMDMAP@@XZ 0040d1f4 f   mfc140ud:mfc140ud.dll
 0001:0000c1fa       ?GetDispatchMap@CCmdTarget@@MBEPBUAFX_DISPMAP@@XZ 0040d1fa f   mfc140ud:mfc140ud.dll
 0001:0000c200       ?GetConnectionMap@CCmdTarget@@MBEPBUAFX_CONNECTIONMAP@@XZ 0040d200 f   mfc140ud:mfc140ud.dll
 0001:0000c206       ?GetInterfaceMap@CCmdTarget@@MBEPBUAFX_INTERFACEMAP@@XZ 0040d206 f   mfc140ud:mfc140ud.dll
 0001:0000c20c       ?GetEventSinkMap@CCmdTarget@@MBEPBUAFX_EVENTSINKMAP@@XZ 0040d20c f   mfc140ud:mfc140ud.dll
 0001:0000c212       ?OnCreateAggregates@CCmdTarget@@UAEHXZ 0040d212 f   mfc140ud:mfc140ud.dll
 0001:0000c218       ?GetInterfaceHook@CCmdTarget@@UAEPAUIUnknown@@PBX@Z 0040d218 f   mfc140ud:mfc140ud.dll
 0001:0000c21e       ?GetExtraConnectionPoints@CCmdTarget@@MAEHPAVCPtrArray@@@Z 0040d21e f   mfc140ud:mfc140ud.dll
 0001:0000c224       ?GetConnectionHook@CCmdTarget@@MAEPAUIConnectionPoint@@ABU_GUID@@@Z 0040d224 f   mfc140ud:mfc140ud.dll
 0001:0000c22a       ?DoModal@CDialog@@UAEHXZ   0040d22a f   mfc140ud:mfc140ud.dll
 0001:0000c230       ??1CDialog@@UAE@XZ         0040d230 f   mfc140ud:mfc140ud.dll
 0001:0000c236       ??1CButton@@UAE@XZ         0040d236 f   mfc140ud:mfc140ud.dll
 0001:0000c23c       ??1CComboBox@@UAE@XZ       0040d23c f   mfc140ud:mfc140ud.dll
 0001:0000c242       ??1CEdit@@UAE@XZ           0040d242 f   mfc140ud:mfc140ud.dll
 0001:0000c248       ?PreTranslateMessage@CWinThread@@UAEHPAUtagMSG@@@Z 0040d248 f   mfc140ud:mfc140ud.dll
 0001:0000c24e       ?PumpMessage@CWinThread@@UAEHXZ 0040d24e f   mfc140ud:mfc140ud.dll
 0001:0000c254       ?IsIdleMessage@CWinThread@@UAEHPAUtagMSG@@@Z 0040d254 f   mfc140ud:mfc140ud.dll
 0001:0000c25a       ?ProcessMessageFilter@CWinThread@@UAEHHPAUtagMSG@@@Z 0040d25a f   mfc140ud:mfc140ud.dll
 0001:0000c260       ?GetMainWnd@CWinThread@@UAEPAVCWnd@@XZ 0040d260 f   mfc140ud:mfc140ud.dll
 0001:0000c266       ?Delete@CWinThread@@UAEXXZ 0040d266 f   mfc140ud:mfc140ud.dll
 0001:0000c26c       ?GetRuntimeClass@CWinApp@@UBEPAUCRuntimeClass@@XZ 0040d26c f   mfc140ud:mfc140ud.dll
 0001:0000c272       ??0CWinApp@@QAE@PB_W@Z     0040d272 f   mfc140ud:mfc140ud.dll
 0001:0000c278       ?SetRegistryKey@CWinApp@@IAEXPB_W@Z 0040d278 f   mfc140ud:mfc140ud.dll
 0001:0000c27e       ?GetProfileIntW@CWinApp@@UAEIPB_W0H@Z 0040d27e f   mfc140ud:mfc140ud.dll
 0001:0000c284       ?WriteProfileInt@CWinApp@@UAEHPB_W0H@Z 0040d284 f   mfc140ud:mfc140ud.dll
 0001:0000c28a       ?GetProfileStringW@CWinApp@@UAE?AV?$CStringT@_WV?$StrTraitMFC_DLL@_WV?$ChTraitsCRT@_W@ATL@@@@@ATL@@PB_W00@Z 0040d28a f   mfc140ud:mfc140ud.dll
 0001:0000c290       ?WriteProfileStringW@CWinApp@@UAEHPB_W00@Z 0040d290 f   mfc140ud:mfc140ud.dll
 0001:0000c296       ?GetProfileBinary@CWinApp@@UAEHPB_W0PAPAEPAI@Z 0040d296 f   mfc140ud:mfc140ud.dll
 0001:0000c29c       ?WriteProfileBinary@CWinApp@@UAEHPB_W0PAEI@Z 0040d29c f   mfc140ud:mfc140ud.dll
 0001:0000c2a2       ?InitLibId@CWinApp@@UAEXXZ 0040d2a2 f   mfc140ud:mfc140ud.dll
 0001:0000c2a8       ?Register@CWinApp@@UAEHXZ  0040d2a8 f   mfc140ud:mfc140ud.dll
 0001:0000c2ae       ?Unregister@CWinApp@@UAEHXZ 0040d2ae f   mfc140ud:mfc140ud.dll
 0001:0000c2b4       ?OpenDocumentFile@CWinApp@@UAEPAVCDocument@@PB_W@Z 0040d2b4 f   mfc140ud:mfc140ud.dll
 0001:0000c2ba       ?OpenDocumentFile@CWinApp@@UAEPAVCDocument@@PB_WH@Z 0040d2ba f   mfc140ud:mfc140ud.dll
 0001:0000c2c0       ?AddToRecentFileList@CWinApp@@UAEXPB_W@Z 0040d2c0 f   mfc140ud:mfc140ud.dll
 0001:0000c2c6       ?InitApplication@CWinApp@@UAEHXZ 0040d2c6 f   mfc140ud:mfc140ud.dll
 0001:0000c2cc       ?SaveAllModified@CWinApp@@UAEHXZ 0040d2cc f   mfc140ud:mfc140ud.dll
 0001:0000c2d2       ?DoMessageBox@CWinApp@@UAEHPB_WII@Z 0040d2d2 f   mfc140ud:mfc140ud.dll
 0001:0000c2d8       ?DoWaitCursor@CWinApp@@UAEXH@Z 0040d2d8 f   mfc140ud:mfc140ud.dll
 0001:0000c2de       ?OnDDECommand@CWinApp@@UAEHPA_W@Z 0040d2de f   mfc140ud:mfc140ud.dll
 0001:0000c2e4       ?WinHelpW@CWinApp@@UAEXKI@Z 0040d2e4 f   mfc140ud:mfc140ud.dll
 0001:0000c2ea       ?HtmlHelpW@CWinApp@@UAEXKI@Z 0040d2ea f   mfc140ud:mfc140ud.dll
 0001:0000c2f0       ?WinHelpInternal@CWinApp@@UAEXKI@Z 0040d2f0 f   mfc140ud:mfc140ud.dll
 0001:0000c2f6       ?RegisterWithRestartManager@CWinApp@@UAEJHABV?$CStringT@_WV?$StrTraitMFC_DLL@_WV?$ChTraitsCRT@_W@ATL@@@@@ATL@@@Z 0040d2f6 f   mfc140ud:mfc140ud.dll
 0001:0000c2fc       ?RegisterWithRestartManager@CWinApp@@UAEJPB_WKP6GKPAX@Z1KK@Z 0040d2fc f   mfc140ud:mfc140ud.dll
 0001:0000c302       ?ApplicationRecoveryCallback@CWinApp@@UAEKPAX@Z 0040d302 f   mfc140ud:mfc140ud.dll
 0001:0000c308       ?GetDataRecoveryHandler@CWinApp@@UAEPAVCDataRecoveryHandler@@XZ 0040d308 f   mfc140ud:mfc140ud.dll
 0001:0000c30e       ?IsTaskbarInteractionEnabled@CWinApp@@UAEHXZ 0040d30e f   mfc140ud:mfc140ud.dll
 0001:0000c314       ?InitInstance@CWinApp@@UAEHXZ 0040d314 f   mfc140ud:mfc140ud.dll
 0001:0000c31a       ?ExitInstance@CWinApp@@UAEHXZ 0040d31a f   mfc140ud:mfc140ud.dll
 0001:0000c320       ?RestartInstance@CWinApp@@UAEHXZ 0040d320 f   mfc140ud:mfc140ud.dll
 0001:0000c326       ?Run@CWinApp@@UAEHXZ       0040d326 f   mfc140ud:mfc140ud.dll
 0001:0000c32c       ?OnIdle@CWinApp@@UAEHJ@Z   0040d32c f   mfc140ud:mfc140ud.dll
 0001:0000c332       ?ProcessWndProcException@CWinApp@@UAEJPAVCException@@PBUtagMSG@@@Z 0040d332 f   mfc140ud:mfc140ud.dll
 0001:0000c338       ?LoadAppLangResourceDLL@CWinApp@@UAEPAUHINSTANCE__@@XZ 0040d338 f   mfc140ud:mfc140ud.dll
 0001:0000c33e       ??1CWinApp@@UAE@XZ         0040d33e f   mfc140ud:mfc140ud.dll
 0001:0000c344       ?AssertValid@CWinApp@@UBEXXZ 0040d344 f   mfc140ud:mfc140ud.dll
 0001:0000c34a       ?Dump@CWinApp@@UBEXAAVCDumpContext@@@Z 0040d34a f   mfc140ud:mfc140ud.dll
 0001:0000c350       ?LoadSysPolicies@CWinApp@@UAEHXZ 0040d350 f   mfc140ud:mfc140ud.dll
 0001:0000c356       ?AfxEnableControlContainer@@YAXPAVCOccManager@@@Z 0040d356 f   mfc140ud:mfc140ud.dll
 0001:0000c35c       ??1CListCtrl@@UAE@XZ       0040d35c f   mfc140ud:mfc140ud.dll
 0001:0000c362       ??1CTreeCtrl@@UAE@XZ       0040d362 f   mfc140ud:mfc140ud.dll
 0001:0000c368       ??3@YAXPAX@Z               0040d368 f   mfc140ud:mfc140ud.dll
 0001:0000c36e       ?GetThisMessageMap@CDialog@@KGPBUAFX_MSGMAP@@XZ 0040d36e f   mfc140ud:mfc140ud.dll
 0001:0000c374       ??B?$CSimpleStringT@_W$00@ATL@@QBEPB_WXZ 0040d374 f   mfc140ud:mfc140ud.dll
 0001:0000c37a       ?Empty@?$CSimpleStringT@_W$00@ATL@@QAEXXZ 0040d37a f   mfc140ud:mfc140ud.dll
 0001:0000c380       ?GetAt@?$CSimpleStringT@_W$00@ATL@@QBE_WH@Z 0040d380 f   mfc140ud:mfc140ud.dll
 0001:0000c386       ?GetLength@?$CSimpleStringT@_W$00@ATL@@QBEHXZ 0040d386 f   mfc140ud:mfc140ud.dll
 0001:0000c38c       ?IsEmpty@?$CSimpleStringT@_W$00@ATL@@QBE_NXZ 0040d38c f   mfc140ud:mfc140ud.dll
 0001:0000c392       ?StringLength@?$CSimpleStringT@_W$00@ATL@@SAHPB_W@Z 0040d392 f   mfc140ud:mfc140ud.dll
 0001:0000c398       ?Concatenate@?$CSimpleStringT@_W$00@ATL@@KAXAAV12@PB_WH1H@Z 0040d398 f   mfc140ud:mfc140ud.dll
 0001:0000c39e       ??0?$CStringT@_WV?$StrTraitMFC_DLL@_WV?$ChTraitsCRT@_W@ATL@@@@@ATL@@QAE@XZ 0040d39e f   mfc140ud:mfc140ud.dll
 0001:0000c3a4       ??0?$CStringT@_WV?$StrTraitMFC_DLL@_WV?$ChTraitsCRT@_W@ATL@@@@@ATL@@QAE@PAUIAtlStringMgr@1@@Z 0040d3a4 f   mfc140ud:mfc140ud.dll
 0001:0000c3aa       ??0?$CStringT@_WV?$StrTraitMFC_DLL@_WV?$ChTraitsCRT@_W@ATL@@@@@ATL@@QAE@ABV01@@Z 0040d3aa f   mfc140ud:mfc140ud.dll
 0001:0000c3b0       ??0?$CStringT@_WV?$StrTraitMFC_DLL@_WV?$ChTraitsCRT@_W@ATL@@@@@ATL@@QAE@PBD@Z 0040d3b0 f   mfc140ud:mfc140ud.dll
 0001:0000c3b6       ??1?$CStringT@_WV?$StrTraitMFC_DLL@_WV?$ChTraitsCRT@_W@ATL@@@@@ATL@@QAE@XZ 0040d3b6 f   mfc140ud:mfc140ud.dll
 0001:0000c3bc       ??4?$CStringT@_WV?$StrTraitMFC_DLL@_WV?$ChTraitsCRT@_W@ATL@@@@@ATL@@QAEAAV01@ABV01@@Z 0040d3bc f   mfc140ud:mfc140ud.dll
 0001:0000c3c2       ?GetManager@?$CStringT@_WV?$StrTraitMFC_DLL@_WV?$ChTraitsCRT@_W@ATL@@@@@ATL@@QBEPAUIAtlStringMgr@2@XZ 0040d3c2 f   mfc140ud:mfc140ud.dll
 0001:0000c3c8       ?Format@?$CStringT@_WV?$StrTraitMFC_DLL@_WV?$ChTraitsCRT@_W@ATL@@@@@ATL@@QAAXPB_WZZ 0040d3c8 f   mfc140ud:mfc140ud.dll
 0001:0000c3ce       ?AppendFormat@?$CStringT@_WV?$StrTraitMFC_DLL@_WV?$ChTraitsCRT@_W@ATL@@@@@ATL@@QAAXPB_WZZ 0040d3ce f   mfc140ud:mfc140ud.dll
 0001:0000c3d4       ?LoadStringW@?$CStringT@_WV?$StrTraitMFC_DLL@_WV?$ChTraitsCRT@_W@ATL@@@@@ATL@@QAEHI@Z 0040d3d4 f   mfc140ud:mfc140ud.dll
 0001:0000c3da       ??0CFileFind@@QAE@XZ       0040d3da f   mfc140ud:mfc140ud.dll
 0001:0000c3e0       ??1CFileFind@@UAE@XZ       0040d3e0 f   mfc140ud:mfc140ud.dll
 0001:0000c3e6       ?FindFile@CFileFind@@UAEHPB_WK@Z 0040d3e6 f   mfc140ud:mfc140ud.dll
 0001:0000c3ec       ??0CPtrList@@QAE@H@Z       0040d3ec f   mfc140ud:mfc140ud.dll
 0001:0000c3f2       ?GetCount@CPtrList@@QBEHXZ 0040d3f2 f   mfc140ud:mfc140ud.dll
 0001:0000c3f8       ?IsEmpty@CPtrList@@QBEHXZ  0040d3f8 f   mfc140ud:mfc140ud.dll
 0001:0000c3fe       ?AddTail@CPtrList@@QAEPAU__POSITION@@PAX@Z 0040d3fe f   mfc140ud:mfc140ud.dll
 0001:0000c404       ?RemoveAll@CPtrList@@QAEXXZ 0040d404 f   mfc140ud:mfc140ud.dll
 0001:0000c40a       ?GetAt@CPtrList@@QAEAAPAXPAU__POSITION@@@Z 0040d40a f   mfc140ud:mfc140ud.dll
 0001:0000c410       ?FindIndex@CPtrList@@QBEPAU__POSITION@@H@Z 0040d410 f   mfc140ud:mfc140ud.dll
 0001:0000c416       ?GetSafeHdc@CDC@@QBEPAUHDC__@@XZ 0040d416 f   mfc140ud:mfc140ud.dll
 0001:0000c41c       ?DrawIcon@CDC@@QAEHHHPAUHICON__@@@Z 0040d41c f   mfc140ud:mfc140ud.dll
 0001:0000c422       ??0CPaintDC@@QAE@PAVCWnd@@@Z 0040d422 f   mfc140ud:mfc140ud.dll
 0001:0000c428       ??1CPaintDC@@UAE@XZ        0040d428 f   mfc140ud:mfc140ud.dll
 0001:0000c42e       ?AppendMenuW@CMenu@@QAEHIIPB_W@Z 0040d42e f   mfc140ud:mfc140ud.dll
 0001:0000c434       ?DDX_Control@@YGXPAVCDataExchange@@HAAVCWnd@@@Z 0040d434 f   mfc140ud:mfc140ud.dll
 0001:0000c43a       ?PreSubclassWindow@CWnd@@UAEXXZ 0040d43a f   mfc140ud:mfc140ud.dll
 0001:0000c440       ?Create@CWnd@@UAEHPB_W0KABUtagRECT@@PAV1@IPAUCCreateContext@@@Z 0040d440 f   mfc140ud:mfc140ud.dll
 0001:0000c446       ?CreateEx@CWnd@@UAEHKPB_W0KHHHHPAUHWND__@@PAUHMENU__@@PAX@Z 0040d446 f   mfc140ud:mfc140ud.dll
 0001:0000c44c       ?CreateEx@CWnd@@UAEHKPB_W0KABUtagRECT@@PAV1@IPAX@Z 0040d44c f   mfc140ud:mfc140ud.dll
 0001:0000c452       ?DestroyWindow@CWnd@@UAEHXZ 0040d452 f   mfc140ud:mfc140ud.dll
 0001:0000c458       ?PreCreateWindow@CWnd@@UAEHAAUtagCREATESTRUCTW@@@Z 0040d458 f   mfc140ud:mfc140ud.dll
 0001:0000c45e       ?CalcWindowRect@CWnd@@UAEXPAUtagRECT@@I@Z 0040d45e f   mfc140ud:mfc140ud.dll
 0001:0000c464       ?SendMessageW@CWnd@@QBEJIIJ@Z 0040d464 f   mfc140ud:mfc140ud.dll
 0001:0000c46a       ?SetWindowTextW@CWnd@@QAEXPB_W@Z 0040d46a f   mfc140ud:mfc140ud.dll
 0001:0000c470       ?GetMenu@CWnd@@UBEPAVCMenu@@XZ 0040d470 f   mfc140ud:mfc140ud.dll
 0001:0000c476       ?SetMenu@CWnd@@UAEHPAVCMenu@@@Z 0040d476 f   mfc140ud:mfc140ud.dll
 0001:0000c47c       ?GetSystemMenu@CWnd@@QBEPAVCMenu@@H@Z 0040d47c f   mfc140ud:mfc140ud.dll
 0001:0000c482       ?IsIconic@CWnd@@QBEHXZ     0040d482 f   mfc140ud:mfc140ud.dll
 0001:0000c488       ?GetClientRect@CWnd@@QBEXPAUtagRECT@@@Z 0040d488 f   mfc140ud:mfc140ud.dll
 0001:0000c48e       ?ShowWindow@CWnd@@QAEHH@Z  0040d48e f   mfc140ud:mfc140ud.dll
 0001:0000c494       ?OnToolHitTest@CWnd@@UBEHVCPoint@@PAUtagTOOLINFOW@@@Z 0040d494 f   mfc140ud:mfc140ud.dll
 0001:0000c49a       ?EnableWindow@CWnd@@QAEHH@Z 0040d49a f   mfc140ud:mfc140ud.dll
 0001:0000c4a0       ?GetScrollBarCtrl@CWnd@@UBEPAVCScrollBar@@H@Z 0040d4a0 f   mfc140ud:mfc140ud.dll
 0001:0000c4a6       ?MessageBoxW@CWnd@@QAEHPB_W0I@Z 0040d4a6 f   mfc140ud:mfc140ud.dll
 0001:0000c4ac       ?SetIcon@CWnd@@QAEPAUHICON__@@PAU2@H@Z 0040d4ac f   mfc140ud:mfc140ud.dll
 0001:0000c4b2       ?WinHelpW@CWnd@@UAEXKI@Z   0040d4b2 f   mfc140ud:mfc140ud.dll
 0001:0000c4b8       ?HtmlHelpW@CWnd@@UAEXKI@Z  0040d4b8 f   mfc140ud:mfc140ud.dll
 0001:0000c4be       ?WinHelpInternal@CWnd@@UAEXKI@Z 0040d4be f   mfc140ud:mfc140ud.dll
 0001:0000c4c4       ?ContinueModal@CWnd@@UAEHXZ 0040d4c4 f   mfc140ud:mfc140ud.dll
 0001:0000c4ca       ?EndModalLoop@CWnd@@UAEXH@Z 0040d4ca f   mfc140ud:mfc140ud.dll
 0001:0000c4d0       ?OnDrawIconicThumbnailOrLivePreview@CWnd@@UAEXAAVCDC@@VCRect@@VCSize@@HAAH@Z 0040d4d0 f   mfc140ud:mfc140ud.dll
 0001:0000c4d6       ?GetInterfaceMap@CWnd@@MBEPBUAFX_INTERFACEMAP@@XZ 0040d4d6 f   mfc140ud:mfc140ud.dll
 0001:0000c4dc       ?EnsureStdObj@CWnd@@UAEJXZ 0040d4dc f   mfc140ud:mfc140ud.dll
 0001:0000c4e2       ?get_accParent@CWnd@@UAEJPAPAUIDispatch@@@Z 0040d4e2 f   mfc140ud:mfc140ud.dll
 0001:0000c4e8       ?get_accChildCount@CWnd@@UAEJPAJ@Z 0040d4e8 f   mfc140ud:mfc140ud.dll
 0001:0000c4ee       ?get_accChild@CWnd@@UAEJUtagVARIANT@@PAPAUIDispatch@@@Z 0040d4ee f   mfc140ud:mfc140ud.dll
 0001:0000c4f4       ?get_accName@CWnd@@UAEJUtagVARIANT@@PAPA_W@Z 0040d4f4 f   mfc140ud:mfc140ud.dll
 0001:0000c4fa       ?get_accValue@CWnd@@UAEJUtagVARIANT@@PAPA_W@Z 0040d4fa f   mfc140ud:mfc140ud.dll
 0001:0000c500       ?get_accDescription@CWnd@@UAEJUtagVARIANT@@PAPA_W@Z 0040d500 f   mfc140ud:mfc140ud.dll
 0001:0000c506       ?get_accRole@CWnd@@UAEJUtagVARIANT@@PAU2@@Z 0040d506 f   mfc140ud:mfc140ud.dll
 0001:0000c50c       ?get_accState@CWnd@@UAEJUtagVARIANT@@PAU2@@Z 0040d50c f   mfc140ud:mfc140ud.dll
 0001:0000c512       ?get_accHelp@CWnd@@UAEJUtagVARIANT@@PAPA_W@Z 0040d512 f   mfc140ud:mfc140ud.dll
 0001:0000c518       ?get_accHelpTopic@CWnd@@UAEJPAPA_WUtagVARIANT@@PAJ@Z 0040d518 f   mfc140ud:mfc140ud.dll
 0001:0000c51e       ?get_accKeyboardShortcut@CWnd@@UAEJUtagVARIANT@@PAPA_W@Z 0040d51e f   mfc140ud:mfc140ud.dll
 0001:0000c524       ?get_accFocus@CWnd@@UAEJPAUtagVARIANT@@@Z 0040d524 f   mfc140ud:mfc140ud.dll
 0001:0000c52a       ?get_accSelection@CWnd@@UAEJPAUtagVARIANT@@@Z 0040d52a f   mfc140ud:mfc140ud.dll
 0001:0000c530       ?get_accDefaultAction@CWnd@@UAEJUtagVARIANT@@PAPA_W@Z 0040d530 f   mfc140ud:mfc140ud.dll
 0001:0000c536       ?accSelect@CWnd@@UAEJJUtagVARIANT@@@Z 0040d536 f   mfc140ud:mfc140ud.dll
 0001:0000c53c       ?accLocation@CWnd@@UAEJPAJ000UtagVARIANT@@@Z 0040d53c f   mfc140ud:mfc140ud.dll
 0001:0000c542       ?accNavigate@CWnd@@UAEJJUtagVARIANT@@PAU2@@Z 0040d542 f   mfc140ud:mfc140ud.dll
 0001:0000c548       ?accHitTest@CWnd@@UAEJJJPAUtagVARIANT@@@Z 0040d548 f   mfc140ud:mfc140ud.dll
 0001:0000c54e       ?accDoDefaultAction@CWnd@@UAEJUtagVARIANT@@@Z 0040d54e f   mfc140ud:mfc140ud.dll
 0001:0000c554       ?put_accName@CWnd@@UAEJUtagVARIANT@@PA_W@Z 0040d554 f   mfc140ud:mfc140ud.dll
 0001:0000c55a       ?put_accValue@CWnd@@UAEJUtagVARIANT@@PA_W@Z 0040d55a f   mfc140ud:mfc140ud.dll
 0001:0000c560       ?SetProxy@CWnd@@UAEJPAUIAccessibleProxy@@@Z 0040d560 f   mfc140ud:mfc140ud.dll
 0001:0000c566       ?CreateAccessibleProxy@CWnd@@UAEJIJPAJ@Z 0040d566 f   mfc140ud:mfc140ud.dll
 0001:0000c56c       ?OnCommand@CWnd@@MAEHIJ@Z  0040d56c f   mfc140ud:mfc140ud.dll
 0001:0000c572       ?OnNotify@CWnd@@MAEHIJPAJ@Z 0040d572 f   mfc140ud:mfc140ud.dll
 0001:0000c578       ?OnSysCommand@CWnd@@IAEXIJ@Z 0040d578 f   mfc140ud:mfc140ud.dll
 0001:0000c57e       ?GetSuperWndProcAddr@CWnd@@MAEPAP6GJPAUHWND__@@IIJ@ZXZ 0040d57e f   mfc140ud:mfc140ud.dll
 0001:0000c584       ?DoDataExchange@CWnd@@MAEXPAVCDataExchange@@@Z 0040d584 f   mfc140ud:mfc140ud.dll
 0001:0000c58a       ?BeginModalState@CWnd@@UAEXXZ 0040d58a f   mfc140ud:mfc140ud.dll
 0001:0000c590       ?EndModalState@CWnd@@UAEXXZ 0040d590 f   mfc140ud:mfc140ud.dll
 0001:0000c596       ?OnAmbientProperty@CWnd@@UAEHPAVCOleControlSite@@JPAUtagVARIANT@@@Z 0040d596 f   mfc140ud:mfc140ud.dll
 0001:0000c59c       ?WindowProc@CWnd@@MAEJIIJ@Z 0040d59c f   mfc140ud:mfc140ud.dll
 0001:0000c5a2       ?OnWndMsg@CWnd@@MAEHIIJPAJ@Z 0040d5a2 f   mfc140ud:mfc140ud.dll
 0001:0000c5a8       ?DefWindowProcW@CWnd@@MAEJIIJ@Z 0040d5a8 f   mfc140ud:mfc140ud.dll
 0001:0000c5ae       ?PostNcDestroy@CWnd@@MAEXXZ 0040d5ae f   mfc140ud:mfc140ud.dll
 0001:0000c5b4       ?OnChildNotify@CWnd@@MAEHIIJPAJ@Z 0040d5b4 f   mfc140ud:mfc140ud.dll
 0001:0000c5ba       ?OnTouchInputs@CWnd@@MAEHIPAUtagTOUCHINPUT@@@Z 0040d5ba f   mfc140ud:mfc140ud.dll
 0001:0000c5c0       ?OnTouchInput@CWnd@@MAEHVCPoint@@HHPAUtagTOUCHINPUT@@@Z 0040d5c0 f   mfc140ud:mfc140ud.dll
 0001:0000c5c6       ?GetGestureStatus@CWnd@@MAEKVCPoint@@@Z 0040d5c6 f   mfc140ud:mfc140ud.dll
 0001:0000c5cc       ?OnGestureZoom@CWnd@@MAEHVCPoint@@J@Z 0040d5cc f   mfc140ud:mfc140ud.dll
 0001:0000c5d2       ?OnGesturePan@CWnd@@MAEHVCPoint@@0@Z 0040d5d2 f   mfc140ud:mfc140ud.dll
 0001:0000c5d8       ?OnGestureRotate@CWnd@@MAEHVCPoint@@N@Z 0040d5d8 f   mfc140ud:mfc140ud.dll
 0001:0000c5de       ?OnGestureTwoFingerTap@CWnd@@MAEHVCPoint@@@Z 0040d5de f   mfc140ud:mfc140ud.dll
 0001:0000c5e4       ?OnGesturePressAndTap@CWnd@@MAEHVCPoint@@J@Z 0040d5e4 f   mfc140ud:mfc140ud.dll
 0001:0000c5ea       ?ResizeDynamicLayout@CWnd@@MAEXXZ 0040d5ea f   mfc140ud:mfc140ud.dll
 0001:0000c5f0       ?IsFrameWnd@CWnd@@UBEHXZ   0040d5f0 f   mfc140ud:mfc140ud.dll
 0001:0000c5f6       ?OnFinalRelease@CWnd@@UAEXXZ 0040d5f6 f   mfc140ud:mfc140ud.dll
 0001:0000c5fc       ?CreateControlContainer@CWnd@@MAEHPAPAVCOleControlContainer@@@Z 0040d5fc f   mfc140ud:mfc140ud.dll
 0001:0000c602       ?CreateControlSite@CWnd@@MAEHPAVCOleControlContainer@@PAPAVCOleControlSite@@IABU_GUID@@@Z 0040d602 f   mfc140ud:mfc140ud.dll
 0001:0000c608       ?GetRuntimeClass@CDialog@@UBEPAUCRuntimeClass@@XZ 0040d608 f   mfc140ud:mfc140ud.dll
 0001:0000c60e       ?Create@CDialog@@UAEHPB_WPAVCWnd@@@Z 0040d60e f   mfc140ud:mfc140ud.dll
 0001:0000c614       ?Create@CDialog@@UAEHIPAVCWnd@@@Z 0040d614 f   mfc140ud:mfc140ud.dll
 0001:0000c61a       ?CreateIndirect@CDialog@@UAEHPBUDLGTEMPLATE@@PAVCWnd@@PAX@Z 0040d61a f   mfc140ud:mfc140ud.dll
 0001:0000c620       ?CreateIndirect@CDialog@@UAEHPAXPAVCWnd@@@Z 0040d620 f   mfc140ud:mfc140ud.dll
 0001:0000c626       ??0CDialog@@QAE@IPAVCWnd@@@Z 0040d626 f   mfc140ud:mfc140ud.dll
 0001:0000c62c       ?OnInitDialog@CDialog@@UAEHXZ 0040d62c f   mfc140ud:mfc140ud.dll
 0001:0000c632       ?OnSetFont@CDialog@@UAEXPAVCFont@@@Z 0040d632 f   mfc140ud:mfc140ud.dll
 0001:0000c638       ?OnOK@CDialog@@MAEXXZ      0040d638 f   mfc140ud:mfc140ud.dll
 0001:0000c63e       ?OnCancel@CDialog@@MAEXXZ  0040d63e f   mfc140ud:mfc140ud.dll
 0001:0000c644       ?AssertValid@CDialog@@UBEXXZ 0040d644 f   mfc140ud:mfc140ud.dll
 0001:0000c64a       ?Dump@CDialog@@UBEXAAVCDumpContext@@@Z 0040d64a f   mfc140ud:mfc140ud.dll
 0001:0000c650       ?PreTranslateMessage@CDialog@@UAEHPAUtagMSG@@@Z 0040d650 f   mfc140ud:mfc140ud.dll
 0001:0000c656       ?OnCmdMsg@CDialog@@UAEHIHPAXPAUAFX_CMDHANDLERINFO@@@Z 0040d656 f   mfc140ud:mfc140ud.dll
 0001:0000c65c       ?CheckAutoCenter@CDialog@@UAEHXZ 0040d65c f   mfc140ud:mfc140ud.dll
 0001:0000c662       ?SetOccDialogInfo@CDialog@@MAEHPAU_AFX_OCC_DIALOG_INFO@@@Z 0040d662 f   mfc140ud:mfc140ud.dll
 0001:0000c668       ?GetOccDialogInfo@CDialog@@MAEPAU_AFX_OCC_DIALOG_INFO@@XZ 0040d668 f   mfc140ud:mfc140ud.dll
 0001:0000c66e       ?PreInitDialog@CDialog@@MAEXXZ 0040d66e f   mfc140ud:mfc140ud.dll
 0001:0000c674       ?OnPaint@CDialog@@IAEXXZ   0040d674 f   mfc140ud:mfc140ud.dll
 0001:0000c67a       ??0CButton@@QAE@XZ         0040d67a f   mfc140ud:mfc140ud.dll
 0001:0000c680       ??0CComboBox@@QAE@XZ       0040d680 f   mfc140ud:mfc140ud.dll
 0001:0000c686       ?GetCurSel@CComboBox@@QBEHXZ 0040d686 f   mfc140ud:mfc140ud.dll
 0001:0000c68c       ?SetCurSel@CComboBox@@QAEHH@Z 0040d68c f   mfc140ud:mfc140ud.dll
 0001:0000c692       ?GetLBText@CComboBox@@QBEXHAAV?$CStringT@_WV?$StrTraitMFC_DLL@_WV?$ChTraitsCRT@_W@ATL@@@@@ATL@@@Z 0040d692 f   mfc140ud:mfc140ud.dll
 0001:0000c698       ?AddString@CComboBox@@QAEHPB_W@Z 0040d698 f   mfc140ud:mfc140ud.dll
 0001:0000c69e       ??0CEdit@@QAE@XZ           0040d69e f   mfc140ud:mfc140ud.dll
 0001:0000c6a4       ?AfxGetApp@@YGPAVCWinApp@@XZ 0040d6a4 f   mfc140ud:mfc140ud.dll
 0001:0000c6aa       ?LoadIconW@CWinApp@@QBEPAUHICON__@@I@Z 0040d6aa f   mfc140ud:mfc140ud.dll
 0001:0000c6b0       ?GetOFN@CFileDialog@@QAEAAUtagOFNW@@XZ 0040d6b0 f   mfc140ud:mfc140ud.dll
 0001:0000c6b6       ??0CFileDialog@@QAE@HPB_W0K0PAVCWnd@@KH@Z 0040d6b6 f   mfc140ud:mfc140ud.dll
 0001:0000c6bc       ??1CFileDialog@@UAE@XZ     0040d6bc f   mfc140ud:mfc140ud.dll
 0001:0000c6c2       ?DoModal@CFileDialog@@UAEHXZ 0040d6c2 f   mfc140ud:mfc140ud.dll
 0001:0000c6c8       ?GetPathName@CFileDialog@@QBE?AV?$CStringT@_WV?$StrTraitMFC_DLL@_WV?$ChTraitsCRT@_W@ATL@@@@@ATL@@XZ 0040d6c8 f   mfc140ud:mfc140ud.dll
 0001:0000c6ce       ??0CBitmapButton@@QAE@XZ   0040d6ce f   mfc140ud:mfc140ud.dll
 0001:0000c6d4       ??0CListCtrl@@QAE@XZ       0040d6d4 f   mfc140ud:mfc140ud.dll
 0001:0000c6da       ?SetItemText@CListCtrl@@QAEHHHPB_W@Z 0040d6da f   mfc140ud:mfc140ud.dll
 0001:0000c6e0       ?GetHotItem@CListCtrl@@QBEHXZ 0040d6e0 f   mfc140ud:mfc140ud.dll
 0001:0000c6e6       ?SetExtendedStyle@CListCtrl@@QAEKK@Z 0040d6e6 f   mfc140ud:mfc140ud.dll
 0001:0000c6ec       ?InsertItem@CListCtrl@@QAEHHPB_W@Z 0040d6ec f   mfc140ud:mfc140ud.dll
 0001:0000c6f2       ?DeleteAllItems@CListCtrl@@QAEHXZ 0040d6f2 f   mfc140ud:mfc140ud.dll
 0001:0000c6f8       ?InsertColumn@CListCtrl@@QAEHHPB_WHHH@Z 0040d6f8 f   mfc140ud:mfc140ud.dll
 0001:0000c6fe       ??0CTreeCtrl@@QAE@XZ       0040d6fe f   mfc140ud:mfc140ud.dll
 0001:0000c704       ?GetRootItem@CTreeCtrl@@QBEPAU_TREEITEM@@XZ 0040d704 f   mfc140ud:mfc140ud.dll
 0001:0000c70a       ?InsertItem@CTreeCtrl@@QAEPAU_TREEITEM@@PB_WPAU2@1@Z 0040d70a f   mfc140ud:mfc140ud.dll
 0001:0000c710       ?DeleteAllItems@CTreeCtrl@@QAEHXZ 0040d710 f   mfc140ud:mfc140ud.dll
 0001:0000c716       ?Append@?$CSimpleStringT@_W$00@ATL@@QAEXPB_W@Z 0040d716 f   mfc140ud:mfc140ud.dll
 0001:0000c720       ??1CComBSTR@ATL@@QAE@XZ    0040d720 f i mfcs140ud:nolib.obj
 0001:0000c760       ??1stringdispid@CComTypeInfoHolder@ATL@@QAE@XZ 0040d760 f i mfcs140ud:nolib.obj
 0001:0000c790       ??_Estringdispid@CComTypeInfoHolder@ATL@@QAEPAXI@Z 0040d790 f i mfcs140ud:nolib.obj
 0001:0000c850       _IsolationAwareActivateActCtx@8 0040d850 f i mfcs140ud:nolib.obj
 0001:0000c8f0       _IsolationAwareCreateActCtxW@4 0040d8f0 f i mfcs140ud:nolib.obj
 0001:0000c990       _IsolationAwareDeactivateActCtx@8 0040d990 f i mfcs140ud:nolib.obj
 0001:0000ca30       _IsolationAwareFindActCtxSectionStringW@20 0040da30 f i mfcs140ud:nolib.obj
 0001:0000cae0       _IsolationAwarePrivatenPgViNgRzlnPgpgk@4 0040dae0 f i mfcs140ud:nolib.obj
 0001:0000cbc0       _IsolationAwarePrivatezltRgCebPnQQeRff@12 0040dbc0 f i mfcs140ud:nolib.obj
 0001:0000cc70       _IsolationAwarePrivatezltRgzbQhYRuNaQYRJ@4 0040dc70 f i mfcs140ud:nolib.obj
 0001:0000cca0       _IsolationAwarePrivatezltRgzbQhYRuNaQYRn@4 0040dca0 f i mfcs140ud:nolib.obj
 0001:0000ccd0       _IsolationAwareQueryActCtxW@28 0040dcd0 f i mfcs140ud:nolib.obj
 0001:0000cd80       _IsolationAwareUnregisterClassW@8 0040dd80 f i mfcs140ud:nolib.obj
 0001:0000cf20       _WinbaseIsolationAwarePrivatetRgCebPnQQeRff_xReaRYQP_QYY@4 0040df20 f i mfcs140ud:nolib.obj
 0001:0000cf60       _WinbaseIsolationAwarePrivatetRgzlnPgpgk@0 0040df60 f i mfcs140ud:nolib.obj
 0001:0000d5e0       ?configure_argv@__scrt_wide_argv_policy@@SAHXZ 0040e5e0 f i msvcrtd:exe_wwinmain.obj
 0001:0000d600       ?initialize_environment@__scrt_wide_environment_policy@@SAHXZ 0040e600 f i msvcrtd:exe_wwinmain.obj
 0001:0000d650       ?set_app_type@__scrt_winmain_policy@@SAXXZ 0040e650 f i msvcrtd:exe_wwinmain.obj
 0001:0000d660       ?set_commode@__scrt_file_policy@@SAXXZ 0040e660 f i msvcrtd:exe_wwinmain.obj
 0001:0000d680       ?set_fmode@__scrt_file_policy@@SAXXZ 0040e680 f i msvcrtd:exe_wwinmain.obj
 0001:0000d6a0       _wWinMainCRTStartup        0040e6a0 f   msvcrtd:exe_wwinmain.obj
 0001:0000d6b0       ?configure_argv@__scrt_narrow_argv_policy@@SAHXZ 0040e6b0 f i msvcrtd:utility.obj
 0001:0000d760       ?initialize_environment@__scrt_narrow_environment_policy@@SAHXZ 0040e760 f i msvcrtd:utility.obj
 0001:0000d7e0       _NtCurrentTeb              0040e7e0 f i msvcrtd:utility.obj
 0001:0000d7f0       ___scrt_acquire_startup_lock 0040e7f0 f   msvcrtd:utility.obj
 0001:0000d840       ___scrt_dllmain_after_initialize_c 0040e840 f   msvcrtd:utility.obj
 0001:0000d870       ___scrt_dllmain_before_initialize_c 0040e870 f   msvcrtd:utility.obj
 0001:0000d890       ___scrt_dllmain_crt_thread_attach 0040e890 f   msvcrtd:utility.obj
 0001:0000d8c0       ___scrt_dllmain_crt_thread_detach 0040e8c0 f   msvcrtd:utility.obj
 0001:0000d8e0       ___scrt_dllmain_exception_filter 0040e8e0 f   msvcrtd:utility.obj
 0001:0000d930       ___scrt_dllmain_uninitialize_c 0040e930 f   msvcrtd:utility.obj
 0001:0000d960       ___scrt_dllmain_uninitialize_critical 0040e960 f   msvcrtd:utility.obj
 0001:0000d980       ___scrt_initialize_crt     0040e980 f   msvcrtd:utility.obj
 0001:0000d9d0       ___scrt_initialize_onexit_tables 0040e9d0 f   msvcrtd:utility.obj
 0001:0000dab0       ___scrt_is_nonwritable_in_current_image 0040eab0 f   msvcrtd:utility.obj
 0001:0000dbe0       ___scrt_release_startup_lock 0040ebe0 f   msvcrtd:utility.obj
 0001:0000dc10       ___scrt_uninitialize_crt   0040ec10 f   msvcrtd:utility.obj
 0001:0000dc50       __onexit                   0040ec50 f   msvcrtd:utility.obj
 0001:0000dcc0       _at_quick_exit             0040ecc0 f   msvcrtd:utility.obj
 0001:0000dd00       _atexit                    0040ed00 f   msvcrtd:utility.obj
 0001:0000dd30       @_RTC_AllocaHelper@12      0040ed30 f   msvcrtd:stack.obj
 0001:0000dd70       @_RTC_CheckStackVars2@12   0040ed70 f   msvcrtd:stack.obj
 0001:0000de50       @_RTC_CheckStackVars@8     0040ee50 f   msvcrtd:stack.obj
 0001:0000deb0       __RTC_CheckEsp             0040eeb0 f   msvcrtd:stack.obj
 0001:0000def0       @__security_check_cookie@4 0040eef0 f   msvcrtd:secchk.obj
 0001:0000df10       __CRT_RTC_INIT             0040ef10 f   msvcrtd:init.obj
 0001:0000df20       __CRT_RTC_INITW            0040ef20 f   msvcrtd:init.obj
 0001:0000df30       __RTC_InitBase             0040ef30 f   msvcrtd:init.obj
 0001:0000df60       __RTC_Shutdown             0040ef60 f   msvcrtd:init.obj
 0001:0000df80       __chkstk                   0040ef80 f   msvcrtd:chkstk.obj
 0001:0000df80       __alloca_probe             0040ef80 f   msvcrtd:chkstk.obj
 0001:0000dfb0       ??1type_info@@UAE@XZ       0040efb0 f   msvcrtd:std_type_info_static.obj
 0001:0000dfd0       ??_Etype_info@@UAEPAXI@Z   0040efd0 f i msvcrtd:std_type_info_static.obj
 0001:0000dfd0       ??_Gtype_info@@UAEPAXI@Z   0040efd0 f i msvcrtd:std_type_info_static.obj
 0001:0000e090       ?_RTC_AllocaFailure@@YAXPAXPAU_RTC_ALLOCA_NODE@@H@Z 0040f090 f   msvcrtd:error.obj
 0001:0000e180       ?_RTC_Failure@@YAXPAXH@Z   0040f180 f   msvcrtd:error.obj
 0001:0000e1d0       ?_RTC_StackFailure@@YAXPAXPBD@Z 0040f1d0 f   msvcrtd:error.obj
 0001:0000e590       __RTC_UninitUse            0040f590 f   msvcrtd:error.obj
 0001:0000e640       __vsprintf_s_l             0040f640 f i msvcrtd:error.obj
 0001:0000e670       _sprintf_s                 0040f670 f i msvcrtd:error.obj
 0001:0000e690       ??3@YAXPAXI@Z              0040f690 f   msvcrtd:delete_scalar_size.obj
 0001:0000e7d0       __Init_thread_abort        0040f7d0 f   msvcrtd:thread_safe_statics.obj
 0001:0000e7f0       __Init_thread_footer       0040f7f0 f   msvcrtd:thread_safe_statics.obj
 0001:0000e840       __Init_thread_header       0040f840 f   msvcrtd:thread_safe_statics.obj
 0001:0000e8b0       __Init_thread_lock         0040f8b0 f   msvcrtd:thread_safe_statics.obj
 0001:0000e8c0       __Init_thread_notify       0040f8c0 f   msvcrtd:thread_safe_statics.obj
 0001:0000e910       __Init_thread_unlock       0040f910 f   msvcrtd:thread_safe_statics.obj
 0001:0000e920       __Init_thread_wait         0040f920 f   msvcrtd:thread_safe_statics.obj
 0001:0000e9b0       ??_M@YGXPAXIHP6EX0@Z@Z     0040f9b0 f   msvcrtd:ehvecdtr.obj
 0001:0000e9d0       ??_M@YGXPAXIIP6EX0@Z@Z     0040f9d0 f   msvcrtd:ehvecdtr.obj
 0001:0000eaf0       ?__ArrayUnwind@@YGXPAXIIP6EX0@Z@Z 0040faf0 f   msvcrtd:ehvecdtr.obj
 0001:0000eba0       ??_V@YAXPAXI@Z             0040fba0 f   msvcrtd:delete_array_size.obj
 0001:0000ebc0       __except_handler4          0040fbc0 f   msvcrtd:chandler4gs.obj
 0001:0000ec00       @_guard_check_icall_nop@4  0040fc00 f i msvcrtd:guard_support.obj
 0001:0000ec10       _ReadNoFence               0040fc10 f i msvcrtd:guard_support.obj
 0001:0000ec30       _ReadPointerNoFence        0040fc30 f i msvcrtd:guard_support.obj
 0001:0000ec50       __guard_icall_checks_enforced 0040fc50 f i msvcrtd:guard_support.obj
 0001:0000ecf0       ___security_init_cookie    0040fcf0 f   msvcrtd:gs_support.obj
 0001:0000ed70       __matherr                  0040fd70 f   msvcrtd:matherr.obj
 0001:0000ed80       __get_startup_argv_mode    0040fd80 f   msvcrtd:argv_mode.obj
 0001:0000ed90       __get_startup_commit_mode  0040fd90 f   msvcrtd:commit_mode.obj
 0001:0000eda0       __get_startup_file_mode    0040fda0 f   msvcrtd:file_mode.obj
 0001:0000edb0       __get_startup_new_mode     0040fdb0 f   msvcrtd:new_mode.obj
 0001:0000edc0       __get_startup_thread_locale_mode 0040fdc0 f   msvcrtd:thread_locale.obj
 0001:0000edd0       ?__scrt_initialize_type_info@@YAXXZ 0040fdd0 f   msvcrtd:tncleanup.obj
 0001:0000ede0       ?__scrt_uninitialize_type_info@@YAXXZ 0040fde0 f   msvcrtd:tncleanup.obj
 0001:0000ee00       __should_initialize_environment 0040fe00 f   msvcrtd:env_mode.obj
 0001:0000ee10       __initialize_default_precision 0040fe10 f   msvcrtd:default_precision.obj
 0001:0000ee40       __initialize_invalid_parameter_handler 0040fe40 f   msvcrtd:invalid_parameter_handler.obj
 0001:0000ee50       __initialize_denormal_control 0040fe50 f   msvcrtd:denormal_control.obj
 0001:0000ee60       ___local_stdio_scanf_options 0040fe60 f i msvcrtd:default_local_stdio_options.obj
 0001:0000ee70       ___scrt_initialize_default_local_stdio_options 0040fe70 f   msvcrtd:default_local_stdio_options.obj
 0001:0000eeb0       ___scrt_is_user_matherr_present 0040feb0 f   msvcrtd:matherr_detection.obj
 0001:0000eee0       ___scrt_get_dyn_tls_init_callback 0040fee0 f   msvcrtd:dyn_tls_init.obj
 0001:0000eef0       ___scrt_get_dyn_tls_dtor_callback 0040fef0 f   msvcrtd:dyn_tls_dtor.obj
 0001:0000ef00       ___scrt_fastfail           0040ff00 f   msvcrtd:utility_desktop.obj
 0001:0000f040       ___scrt_get_show_window_mode 00410040 f   msvcrtd:utility_desktop.obj
 0001:0000f080       ___scrt_initialize_mta     00410080 f   msvcrtd:utility_desktop.obj
 0001:0000f090       ___scrt_initialize_winrt   00410090 f   msvcrtd:utility_desktop.obj
 0001:0000f0a0       ___scrt_is_managed_app     004100a0 f   msvcrtd:utility_desktop.obj
 0001:0000f130       ___scrt_set_unhandled_exception_filter 00410130 f   msvcrtd:utility_desktop.obj
 0001:0000f140       ___scrt_exe_initialize_mta 00410140 f   msvcrtd:utility_desktop.obj
 0001:0000f140       ___scrt_stub_for_initialize_mta 00410140 f   msvcrtd:utility_desktop.obj
 0001:0000f150       ___scrt_unhandled_exception_filter@4 00410150 f   msvcrtd:utility_desktop.obj
 0001:0000f1d0       __crt_debugger_hook        004101d0 f   msvcrtd:utility_desktop.obj
 0001:0000f1e0       __RTC_Initialize           004101e0 f   msvcrtd:initsect.obj
 0001:0000f210       __RTC_Terminate            00410210 f   msvcrtd:initsect.obj
 0001:0000f240       ___isa_available_init      00410240 f   msvcrtd:cpu_disp.obj
 0001:0000f580       ___scrt_is_ucrt_dll_in_use 00410580 f   msvcrtd:ucrt_detection.obj
 0001:0000f5b0       ___raise_securityfailure   004105b0 f   msvcrtd:gs_report.obj
 0001:0000f5e0       ___report_gsfailure        004105e0 f   msvcrtd:gs_report.obj
 0001:0000f6f0       ___report_rangecheckfailure 004106f0 f   msvcrtd:gs_report.obj
 0001:0000f700       ___report_securityfailure  00410700 f   msvcrtd:gs_report.obj
 0001:0000f7e0       ___report_securityfailureEx 004107e0 f   msvcrtd:gs_report.obj
 0001:0000f910       ?_RTC_GetErrorFunc@@YAP6AHHPBDH00ZZPBX@Z 00410910 f   msvcrtd:userapi.obj
 0001:0000f920       ?_RTC_GetErrorFuncW@@YAP6AHHPB_WH00ZZPBX@Z 00410920 f   msvcrtd:userapi.obj
 0001:0000f930       __RTC_GetErrDesc           00410930 f   msvcrtd:userapi.obj
 0001:0000f950       __RTC_NumErrors            00410950 f   msvcrtd:userapi.obj
 0001:0000f960       __RTC_SetErrorFunc         00410960 f   msvcrtd:userapi.obj
 0001:0000f980       __RTC_SetErrorFuncW        00410980 f   msvcrtd:userapi.obj
 0001:0000f9a0       __RTC_SetErrorType         004109a0 f   msvcrtd:userapi.obj
 0001:0000fe50       ?_RTC_GetSrcLine@@YAHPAEPA_WKPAH1K@Z 00410e50 f   msvcrtd:pdblkup.obj
 0001:000101d0       __except_handler4_noexcept 004111d0 f   msvcrtd:chandler4_noexcept.obj
 0001:00010230       ??_V@YAXPAX@Z              00411230 f   msvcrtd:delete_array.obj
 0001:00010241       _CreateDirectoryW@8        00411241 f   kernel32:KERNEL32.dll
 0001:00010247       _GetLastError@0            00411247 f   kernel32:KERNEL32.dll
 0001:0001024d       _CreateThread@24           0041124d f   kernel32:KERNEL32.dll
 0001:00010253       _TerminateThread@8         00411253 f   kernel32:KERNEL32.dll
 0001:00010259       _CopyFileW@12              00411259 f   kernel32:KERNEL32.dll
 0001:0001025f       _DecodePointer@4           0041125f f   kernel32:KERNEL32.dll
 0001:00010265       _RaiseException@16         00411265 f   kernel32:KERNEL32.dll
 0001:0001026b       _SetLastError@4            0041126b f   kernel32:KERNEL32.dll
 0001:00010271       _HeapDestroy@4             00411271 f   kernel32:KERNEL32.dll
 0001:00010277       _HeapAlloc@12              00411277 f   kernel32:KERNEL32.dll
 0001:0001027d       _HeapReAlloc@16            0041127d f   kernel32:KERNEL32.dll
 0001:00010283       _HeapFree@12               00411283 f   kernel32:KERNEL32.dll
 0001:00010289       _HeapSize@12               00411289 f   kernel32:KERNEL32.dll
 0001:0001028f       _GetProcessHeap@0          0041128f f   kernel32:KERNEL32.dll
 0001:00010295       _InitializeCriticalSectionEx@12 00411295 f   kernel32:KERNEL32.dll
 0001:0001029b       _DeleteCriticalSection@4   0041129b f   kernel32:KERNEL32.dll
 0001:000102a1       _OutputDebugStringA@4      004112a1 f   kernel32:KERNEL32.dll
 0001:000102a7       _InitializeCriticalSectionAndSpinCount@8 004112a7 f   kernel32:KERNEL32.dll
 0001:000102ad       _GetModuleFileNameW@12     004112ad f   kernel32:KERNEL32.dll
 0001:000102b3       _GetModuleHandleA@4        004112b3 f   kernel32:KERNEL32.dll
 0001:000102b9       _GetModuleHandleW@4        004112b9 f   kernel32:KERNEL32.dll
 0001:000102bf       _GetProcAddress@8          004112bf f   kernel32:KERNEL32.dll
 0001:000102c5       _LoadLibraryW@4            004112c5 f   kernel32:KERNEL32.dll
 0001:000102cb       _IsDebuggerPresent@0       004112cb f   kernel32:KERNEL32.dll
 0001:000102d1       _MultiByteToWideChar@24    004112d1 f   kernel32:KERNEL32.dll
 0001:000102d7       _WideCharToMultiByte@32    004112d7 f   kernel32:KERNEL32.dll
 0001:000102dd       _CloseHandle@4             004112dd f   kernel32:KERNEL32.dll
 0001:000102e3       _EnterCriticalSection@4    004112e3 f   kernel32:KERNEL32.dll
 0001:000102e9       _LeaveCriticalSection@4    004112e9 f   kernel32:KERNEL32.dll
 0001:000102ef       _SetEvent@4                004112ef f   kernel32:KERNEL32.dll
 0001:000102f5       _ResetEvent@4              004112f5 f   kernel32:KERNEL32.dll
 0001:000102fb       _WaitForSingleObjectEx@12  004112fb f   kernel32:KERNEL32.dll
 0001:00010301       _CreateEventW@16           00411301 f   kernel32:KERNEL32.dll
 0001:00010307       _QueryPerformanceCounter@4 00411307 f   kernel32:KERNEL32.dll
 0001:0001030d       _GetCurrentProcessId@0     0041130d f   kernel32:KERNEL32.dll
 0001:00010313       _GetCurrentThreadId@0      00411313 f   kernel32:KERNEL32.dll
 0001:00010319       _GetSystemTimeAsFileTime@4 00411319 f   kernel32:KERNEL32.dll
 0001:0001031f       _InitializeSListHead@4     0041131f f   kernel32:KERNEL32.dll
 0001:00010325       _UnhandledExceptionFilter@4 00411325 f   kernel32:KERNEL32.dll
 0001:0001032b       _SetUnhandledExceptionFilter@4 0041132b f   kernel32:KERNEL32.dll
 0001:00010331       _GetStartupInfoW@4         00411331 f   kernel32:KERNEL32.dll
 0001:00010337       _IsProcessorFeaturePresent@4 00411337 f   kernel32:KERNEL32.dll
 0001:0001033d       _GetCurrentProcess@0       0041133d f   kernel32:KERNEL32.dll
 0001:00010343       _TerminateProcess@8        00411343 f   kernel32:KERNEL32.dll
 0001:00010349       _VirtualQuery@12           00411349 f   kernel32:KERNEL32.dll
 0001:0001034f       _FreeLibrary@4             0041134f f   kernel32:KERNEL32.dll
 0001:00010355       _GetSystemMetrics@4        00411355 f   user32:USER32.dll
 0001:0001035b       _MessageBoxW@16            0041135b f   user32:USER32.dll
 0001:00010361       _UnregisterClassW@8        00411361 f   user32:USER32.dll
 0001:00010367       _InitCommonControlsEx@4    00411367 f   comctl32:COMCTL32.dll
 0001:0001036d       ??$?2PAUHINSTANCE__@@@Wrapper@?$CSimpleArray@PAUHINSTANCE__@@V?$CSimpleArrayEqualHelper@PAUHINSTANCE__@@@ATL@@@ATL@@SAPAXIPAPAUHINSTANCE__@@@Z 0041136d f i atls:atlbase.obj
 0001:00010375       ??0?$CComCritSecLock@VCComCriticalSection@ATL@@@ATL@@QAE@AAVCComCriticalSection@1@_N@Z 00411375 f i atls:atlbase.obj
 0001:0001039c       ??0?$CSimpleArray@PAUHINSTANCE__@@V?$CSimpleArrayEqualHelper@PAUHINSTANCE__@@@ATL@@@ATL@@QAE@XZ 0041139c f i atls:atlbase.obj
 0001:000103a9       ??0CAtlBaseModule@ATL@@QAE@XZ 004113a9 f   atls:atlbase.obj
 0001:000103fc       ??0Wrapper@?$CSimpleArray@PAUHINSTANCE__@@V?$CSimpleArrayEqualHelper@PAUHINSTANCE__@@@ATL@@@ATL@@QAE@ABQAUHINSTANCE__@@@Z 004113fc f i atls:atlbase.obj
 0001:0001040c       ??0_ATL_BASE_MODULE70@ATL@@QAE@XZ 0041140c f i atls:atlbase.obj
 0001:0001042f       ??1?$CComCritSecLock@VCComCriticalSection@ATL@@@ATL@@QAE@XZ 0041142f f i atls:atlbase.obj
 0001:00010446       ??1?$CSimpleArray@PAUHINSTANCE__@@V?$CSimpleArrayEqualHelper@PAUHINSTANCE__@@@ATL@@@ATL@@QAE@XZ 00411446 f i atls:atlbase.obj
 0001:0001044b       ??1CAtlBaseModule@ATL@@QAE@XZ 0041144b f   atls:atlbase.obj
 0001:00010461       ??1_ATL_BASE_MODULE70@ATL@@QAE@XZ 00411461 f i atls:atlbase.obj
 0001:00010469       ??A?$CSimpleArray@PAUHINSTANCE__@@V?$CSimpleArrayEqualHelper@PAUHINSTANCE__@@@ATL@@@ATL@@QAEAAPAUHINSTANCE__@@H@Z 00411469 f i atls:atlbase.obj
 0001:0001048e       ?Add@?$CSimpleArray@PAUHINSTANCE__@@V?$CSimpleArrayEqualHelper@PAUHINSTANCE__@@@ATL@@@ATL@@QAEHABQAUHINSTANCE__@@@Z 0041148e f i atls:atlbase.obj
 0001:00010510       ?AddResourceInstance@CAtlBaseModule@ATL@@QAE_NPAUHINSTANCE__@@@Z 00411510 f   atls:atlbase.obj
 0001:00010543       ?AtlCrtErrorCheck@ATL@@YAHH@Z 00411543 f i atls:atlbase.obj
 0001:0001057e       ?AtlThrowImpl@ATL@@YGXJ@Z  0041157e f i atls:atlbase.obj
 0001:0001059f       ?GetHInstanceAt@CAtlBaseModule@ATL@@QAEPAUHINSTANCE__@@H@Z 0041159f f   atls:atlbase.obj
 0001:000105e4       ?GetSize@?$CSimpleArray@PAUHINSTANCE__@@V?$CSimpleArrayEqualHelper@PAUHINSTANCE__@@@ATL@@@ATL@@QBEHXZ 004115e4 f i atls:atlbase.obj
 0001:000105e8       ?InternalSetAtIndex@?$CSimpleArray@PAUHINSTANCE__@@V?$CSimpleArrayEqualHelper@PAUHINSTANCE__@@@ATL@@@ATL@@QAEXHABQAUHINSTANCE__@@@Z 004115e8 f i atls:atlbase.obj
 0001:00010602       ?Lock@?$CComCritSecLock@VCComCriticalSection@ATL@@@ATL@@QAEJXZ 00411602 f i atls:atlbase.obj
 0001:00010615       ?Lock@CComCriticalSection@ATL@@QAEJXZ 00411615 f i atls:atlbase.obj
 0001:0001061f       ?RemoveAll@?$CSimpleArray@PAUHINSTANCE__@@V?$CSimpleArrayEqualHelper@PAUHINSTANCE__@@@ATL@@@ATL@@QAEXXZ 0041161f f i atls:atlbase.obj
 0001:0001063c       ?RemoveAt@?$CSimpleArray@PAUHINSTANCE__@@V?$CSimpleArrayEqualHelper@PAUHINSTANCE__@@@ATL@@@ATL@@QAEHH@Z 0041163c f i atls:atlbase.obj
 0001:0001068a       ?RemoveResourceInstance@CAtlBaseModule@ATL@@QAE_NPAUHINSTANCE__@@@Z 0041168a f   atls:atlbase.obj
 0001:000106e7       ?Unlock@?$CComCritSecLock@VCComCriticalSection@ATL@@@ATL@@QAEXXZ 004116e7 f i atls:atlbase.obj
 0001:000106f8       ?Unlock@CComCriticalSection@ATL@@QAEJXZ 004116f8 f i atls:atlbase.obj
 0001:00010702       ?memmove_s@Checked@ATL@@YAXPAXIPBXI@Z 00411702 f i atls:atlbase.obj
 0001:0001079f       ??_I@YGXPAXIIP6EX0@Z@Z     0041179f f i atls:stdafx.obj
 0001:000107d2       _SysFreeString@4           004117d2 f   oleaut32:OLEAUT32.dll
 0001:000107d8       ___CxxFrameHandler3        004117d8 f   vcruntimed:VCRUNTIME140D.dll
 0001:000107de       _memcpy                    004117de f   vcruntimed:VCRUNTIME140D.dll
 0001:000107e4       _memset                    004117e4 f   vcruntimed:VCRUNTIME140D.dll
 0001:000107ea       ___current_exception       004117ea f   vcruntimed:VCRUNTIME140D.dll
 0001:000107f0       ___current_exception_context 004117f0 f   vcruntimed:VCRUNTIME140D.dll
 0001:000107f6       __except_handler4_common   004117f6 f   vcruntimed:VCRUNTIME140D.dll
 0001:000107fc       ___std_type_info_destroy_list 004117fc f   vcruntimed:VCRUNTIME140D.dll
 0001:00010802       ___vcrt_GetModuleFileNameW 00411802 f   vcruntimed:VCRUNTIME140D.dll
 0001:00010808       ___vcrt_GetModuleHandleW   00411808 f   vcruntimed:VCRUNTIME140D.dll
 0001:0001080e       ___vcrt_LoadLibraryExW     0041180e f   vcruntimed:VCRUNTIME140D.dll
 0001:00010814       _memmove                   00411814 f   vcruntimed:VCRUNTIME140D.dll
 0001:0001081a       _wcscpy_s                  0041181a f   ucrtd:ucrtbased.dll
 0001:00010820       _strcat                    00411820 f   ucrtd:ucrtbased.dll
 0001:00010826       _strcmp                    00411826 f   ucrtd:ucrtbased.dll
 0001:0001082c       _strcpy                    0041182c f   ucrtd:ucrtbased.dll
 0001:00010832       _malloc                    00411832 f   ucrtd:ucrtbased.dll
 0001:00010838       __localtime64              00411838 f   ucrtd:ucrtbased.dll
 0001:0001083e       _strftime                  0041183e f   ucrtd:ucrtbased.dll
 0001:00010844       __time64                   00411844 f   ucrtd:ucrtbased.dll
 0001:0001084a       __CrtDbgReportW            0041184a f   ucrtd:ucrtbased.dll
 0001:00010850       _wcslen                    00411850 f   ucrtd:ucrtbased.dll
 0001:00010856       ___stdio_common_vswprintf  00411856 f   ucrtd:ucrtbased.dll
 0001:0001085c       ___stdio_common_vswprintf_s 0041185c f   ucrtd:ucrtbased.dll
 0001:00010862       ___stdio_common_vsnwprintf_s 00411862 f   ucrtd:ucrtbased.dll
 0001:00010868       _free                      00411868 f   ucrtd:ucrtbased.dll
 0001:0001086e       _isprint                   0041186e f   ucrtd:ucrtbased.dll
 0001:00010874       __seh_filter_exe           00411874 f   ucrtd:ucrtbased.dll
 0001:0001087a       __set_app_type             0041187a f   ucrtd:ucrtbased.dll
 0001:00010880       ___setusermatherr          00411880 f   ucrtd:ucrtbased.dll
 0001:00010886       __configure_wide_argv      00411886 f   ucrtd:ucrtbased.dll
 0001:0001088c       __initialize_wide_environment 0041188c f   ucrtd:ucrtbased.dll
 0001:00010892       __get_wide_winmain_command_line 00411892 f   ucrtd:ucrtbased.dll
 0001:00010898       __initterm                 00411898 f   ucrtd:ucrtbased.dll
 0001:0001089e       __initterm_e               0041189e f   ucrtd:ucrtbased.dll
 0001:000108a4       _exit                      004118a4 f   ucrtd:ucrtbased.dll
 0001:000108aa       __exit                     004118aa f   ucrtd:ucrtbased.dll
 0001:000108b0       __set_fmode                004118b0 f   ucrtd:ucrtbased.dll
 0001:000108b6       __cexit                    004118b6 f   ucrtd:ucrtbased.dll
 0001:000108bc       __c_exit                   004118bc f   ucrtd:ucrtbased.dll
 0001:000108c2       __register_thread_local_exe_atexit_callback 004118c2 f   ucrtd:ucrtbased.dll
 0001:000108c8       __configthreadlocale       004118c8 f   ucrtd:ucrtbased.dll
 0001:000108ce       __set_new_mode             004118ce f   ucrtd:ucrtbased.dll
 0001:000108d4       ___p__commode              004118d4 f   ucrtd:ucrtbased.dll
 0001:000108da       __seh_filter_dll           004118da f   ucrtd:ucrtbased.dll
 0001:000108e0       __configure_narrow_argv    004118e0 f   ucrtd:ucrtbased.dll
 0001:000108e6       __initialize_narrow_environment 004118e6 f   ucrtd:ucrtbased.dll
 0001:000108ec       __initialize_onexit_table  004118ec f   ucrtd:ucrtbased.dll
 0001:000108f2       __register_onexit_function 004118f2 f   ucrtd:ucrtbased.dll
 0001:000108f8       __execute_onexit_table     004118f8 f   ucrtd:ucrtbased.dll
 0001:000108fe       __crt_atexit               004118fe f   ucrtd:ucrtbased.dll
 0001:00010904       __crt_at_quick_exit        00411904 f   ucrtd:ucrtbased.dll
 0001:0001090a       __CrtDbgReport             0041190a f   ucrtd:ucrtbased.dll
 0001:00010910       _strcpy_s                  00411910 f   ucrtd:ucrtbased.dll
 0001:00010916       _strcat_s                  00411916 f   ucrtd:ucrtbased.dll
 0001:0001091c       ___stdio_common_vsprintf_s 0041191c f   ucrtd:ucrtbased.dll
 0001:00010922       _terminate                 00411922 f   ucrtd:ucrtbased.dll
 0001:00010928       __controlfp_s              00411928 f   ucrtd:ucrtbased.dll
 0001:0001092e       __wmakepath_s              0041192e f   ucrtd:ucrtbased.dll
 0001:00010934       __wsplitpath_s             00411934 f   ucrtd:ucrtbased.dll
 0001:0001093a       __invalid_parameter_noinfo 0041193a f   ucrtd:ucrtbased.dll
 0001:00010940       __errno                    00411940 f   ucrtd:ucrtbased.dll
 0001:00010946       __recalloc                 00411946 f   ucrtd:ucrtbased.dll
 0001:00010950       ?AfxAssertFailedLine@@YGHPBDH@Z 00411950 f i mfcs140ud:appmodul.obj
 0001:00010a00       ?AfxInitialize@@YGHHK@Z    00411a00 f   mfcs140ud:appmodul.obj
 0001:00010a60       _wWinMain@16               00411a60 f   mfcs140ud:appmodul.obj
 0001:00010a83       _OutputDebugStringW@4      00411a83 f   kernel32:KERNEL32.dll
 0001:00010a89       _PeekMessageW@20           00411a89 f   user32:USER32.dll
 0001:00010a8f       _PostQuitMessage@4         00411a8f f   user32:USER32.dll
 0001:00010a95       ?AfxGetModuleState@@YGPAVAFX_MODULE_STATE@@XZ 00411a95 f   mfc140ud:mfc140ud.dll
 0001:00010a9b       ?AfxWinMain@@YGHPAUHINSTANCE__@@0PA_WH@Z 00411a9b f   mfc140ud:mfc140ud.dll
 0001:00010ab0       ___scrt_stub_for_acrt_initialize 00411ab0 f   msvcrtd:ucrt_stubs.obj
 0001:00010ab0       ___acrt_initialize         00411ab0 f   msvcrtd:ucrt_stubs.obj
 0001:00010ab0       ___vcrt_initialize         00411ab0 f   msvcrtd:ucrt_stubs.obj
 0001:00010ac0       ___scrt_stub_for_acrt_thread_attach 00411ac0 f   msvcrtd:ucrt_stubs.obj
 0001:00010ac0       ___acrt_thread_attach      00411ac0 f   msvcrtd:ucrt_stubs.obj
 0001:00010ac0       ___vcrt_thread_attach      00411ac0 f   msvcrtd:ucrt_stubs.obj
 0001:00010ad0       ___acrt_thread_detach      00411ad0 f   msvcrtd:ucrt_stubs.obj
 0001:00010ad0       ___vcrt_thread_detach      00411ad0 f   msvcrtd:ucrt_stubs.obj
 0001:00010ad0       ___scrt_stub_for_acrt_thread_detach 00411ad0 f   msvcrtd:ucrt_stubs.obj
 0001:00010ae0       ___acrt_uninitialize       00411ae0 f   msvcrtd:ucrt_stubs.obj
 0001:00010ae0       ___vcrt_uninitialize       00411ae0 f   msvcrtd:ucrt_stubs.obj
 0001:00010ae0       ___scrt_stub_for_acrt_uninitialize 00411ae0 f   msvcrtd:ucrt_stubs.obj
 0001:00010af0       ___acrt_uninitialize_critical 00411af0 f   msvcrtd:ucrt_stubs.obj
 0001:00010af0       ___vcrt_uninitialize_critical 00411af0 f   msvcrtd:ucrt_stubs.obj
 0001:00010af0       ___scrt_stub_for_acrt_uninitialize_critical 00411af0 f   msvcrtd:ucrt_stubs.obj
 0001:00010b00       __is_c_termination_complete 00411b00 f   msvcrtd:ucrt_stubs.obj
 0001:00010b00       ___scrt_stub_for_is_c_termination_complete 00411b00 f   msvcrtd:ucrt_stubs.obj
 0001:00010b10       __filter_x86_sse2_floating_point_exception 00411b10 f   msvcrtd:x86_exception_filter.obj
 0001:00010b10       __filter_x86_sse2_floating_point_exception_default 00411b10 f   msvcrtd:x86_exception_filter.obj
 0001:00011450       ??__FstrHeap@?1??GetInstance@CAtlStringMgr@ATL@@SAPAUIAtlStringMgr@2@XZ@YAXXZ 00412450 f i stdafx.obj
 0001:00011490       ??__FstrMgr@?1??GetInstance@CAtlStringMgr@ATL@@SAPAUIAtlStringMgr@2@XZ@YAXXZ 00412490 f i stdafx.obj
 0002:00000000       __imp__InitCommonControlsEx@4 00413000     comctl32:COMCTL32.dll
 0002:00000004       \177COMCTL32_NULL_THUNK_DATA 00413004     comctl32:COMCTL32.dll
 0002:00000008       __imp__CreateThread@24     00413008     kernel32:KERNEL32.dll
 0002:0000000c       __imp__TerminateThread@8   0041300c     kernel32:KERNEL32.dll
 0002:00000010       __imp__OutputDebugStringW@4 00413010     kernel32:KERNEL32.dll
 0002:00000014       __imp__CopyFileW@12        00413014     kernel32:KERNEL32.dll
 0002:00000018       __imp__DecodePointer@4     00413018     kernel32:KERNEL32.dll
 0002:0000001c       __imp__GetLastError@0      0041301c     kernel32:KERNEL32.dll
 0002:00000020       __imp__SetLastError@4      00413020     kernel32:KERNEL32.dll
 0002:00000024       __imp__HeapDestroy@4       00413024     kernel32:KERNEL32.dll
 0002:00000028       __imp__HeapAlloc@12        00413028     kernel32:KERNEL32.dll
 0002:0000002c       __imp__HeapReAlloc@16      0041302c     kernel32:KERNEL32.dll
 0002:00000030       __imp__HeapFree@12         00413030     kernel32:KERNEL32.dll
 0002:00000034       __imp__HeapSize@12         00413034     kernel32:KERNEL32.dll
 0002:00000038       __imp__RaiseException@16   00413038     kernel32:KERNEL32.dll
 0002:0000003c       __imp__QueryPerformanceCounter@4 0041303c     kernel32:KERNEL32.dll
 0002:00000040       __imp__GetProcessHeap@0    00413040     kernel32:KERNEL32.dll
 0002:00000044       __imp__InitializeCriticalSectionEx@12 00413044     kernel32:KERNEL32.dll
 0002:00000048       __imp__DeleteCriticalSection@4 00413048     kernel32:KERNEL32.dll
 0002:0000004c       __imp__OutputDebugStringA@4 0041304c     kernel32:KERNEL32.dll
 0002:00000050       __imp__InitializeCriticalSectionAndSpinCount@8 00413050     kernel32:KERNEL32.dll
 0002:00000054       __imp__FreeLibrary@4       00413054     kernel32:KERNEL32.dll
 0002:00000058       __imp__VirtualQuery@12     00413058     kernel32:KERNEL32.dll
 0002:0000005c       __imp__TerminateProcess@8  0041305c     kernel32:KERNEL32.dll
 0002:00000060       __imp__GetCurrentProcess@0 00413060     kernel32:KERNEL32.dll
 0002:00000064       __imp__IsProcessorFeaturePresent@4 00413064     kernel32:KERNEL32.dll
 0002:00000068       __imp__GetStartupInfoW@4   00413068     kernel32:KERNEL32.dll
 0002:0000006c       __imp__SetUnhandledExceptionFilter@4 0041306c     kernel32:KERNEL32.dll
 0002:00000070       __imp__UnhandledExceptionFilter@4 00413070     kernel32:KERNEL32.dll
 0002:00000074       __imp__InitializeSListHead@4 00413074     kernel32:KERNEL32.dll
 0002:00000078       __imp__GetSystemTimeAsFileTime@4 00413078     kernel32:KERNEL32.dll
 0002:0000007c       __imp__GetCurrentThreadId@0 0041307c     kernel32:KERNEL32.dll
 0002:00000080       __imp__GetCurrentProcessId@0 00413080     kernel32:KERNEL32.dll
 0002:00000084       __imp__CreateDirectoryW@8  00413084     kernel32:KERNEL32.dll
 0002:00000088       __imp__CreateEventW@16     00413088     kernel32:KERNEL32.dll
 0002:0000008c       __imp__WaitForSingleObjectEx@12 0041308c     kernel32:KERNEL32.dll
 0002:00000090       __imp__ResetEvent@4        00413090     kernel32:KERNEL32.dll
 0002:00000094       __imp__SetEvent@4          00413094     kernel32:KERNEL32.dll
 0002:00000098       __imp__LeaveCriticalSection@4 00413098     kernel32:KERNEL32.dll
 0002:0000009c       __imp__EnterCriticalSection@4 0041309c     kernel32:KERNEL32.dll
 0002:000000a0       __imp__CloseHandle@4       004130a0     kernel32:KERNEL32.dll
 0002:000000a4       __imp__WideCharToMultiByte@32 004130a4     kernel32:KERNEL32.dll
 0002:000000a8       __imp__MultiByteToWideChar@24 004130a8     kernel32:KERNEL32.dll
 0002:000000ac       __imp__IsDebuggerPresent@0 004130ac     kernel32:KERNEL32.dll
 0002:000000b0       __imp__LoadLibraryW@4      004130b0     kernel32:KERNEL32.dll
 0002:000000b4       __imp__GetProcAddress@8    004130b4     kernel32:KERNEL32.dll
 0002:000000b8       __imp__GetModuleHandleW@4  004130b8     kernel32:KERNEL32.dll
 0002:000000bc       __imp__GetModuleHandleA@4  004130bc     kernel32:KERNEL32.dll
 0002:000000c0       __imp__GetModuleFileNameW@12 004130c0     kernel32:KERNEL32.dll
 0002:000000c4       \177KERNEL32_NULL_THUNK_DATA 004130c4     kernel32:KERNEL32.dll
 0002:000000c8       __imp__SysFreeString@4     004130c8     oleaut32:OLEAUT32.dll
 0002:000000cc       \177OLEAUT32_NULL_THUNK_DATA 004130cc     oleaut32:OLEAUT32.dll
 0002:000000d0       __imp__PeekMessageW@20     004130d0     user32:USER32.dll
 0002:000000d4       __imp__UnregisterClassW@8  004130d4     user32:USER32.dll
 0002:000000d8       __imp__MessageBoxW@16      004130d8     user32:USER32.dll
 0002:000000dc       __imp__GetSystemMetrics@4  004130dc     user32:USER32.dll
 0002:000000e0       __imp__PostQuitMessage@4   004130e0     user32:USER32.dll
 0002:000000e4       \177USER32_NULL_THUNK_DATA 004130e4     user32:USER32.dll
 0002:000000e8       __imp____vcrt_GetModuleHandleW 004130e8     vcruntimed:VCRUNTIME140D.dll
 0002:000000ec       __imp____vcrt_LoadLibraryExW 004130ec     vcruntimed:VCRUNTIME140D.dll
 0002:000000f0       __imp__memmove             004130f0     vcruntimed:VCRUNTIME140D.dll
 0002:000000f4       __imp____CxxFrameHandler3  004130f4     vcruntimed:VCRUNTIME140D.dll
 0002:000000f8       __imp____vcrt_GetModuleFileNameW 004130f8     vcruntimed:VCRUNTIME140D.dll
 0002:000000fc       __imp____std_type_info_destroy_list 004130fc     vcruntimed:VCRUNTIME140D.dll
 0002:00000100       __imp___except_handler4_common 00413100     vcruntimed:VCRUNTIME140D.dll
 0002:00000104       __imp__memcpy              00413104     vcruntimed:VCRUNTIME140D.dll
 0002:00000108       __imp____current_exception 00413108     vcruntimed:VCRUNTIME140D.dll
 0002:0000010c       __imp____current_exception_context 0041310c     vcruntimed:VCRUNTIME140D.dll
 0002:00000110       __imp__memset              00413110     vcruntimed:VCRUNTIME140D.dll
 0002:00000114       \177VCRUNTIME140D_NULL_THUNK_DATA 00413114     vcruntimed:VCRUNTIME140D.dll
 0002:00000118       __imp__ntohs@4             00413118     ws2_32:WS2_32.dll
 0002:0000011c       __imp__inet_ntoa@4         0041311c     ws2_32:WS2_32.dll
 0002:00000120       \177WS2_32_NULL_THUNK_DATA 00413120     ws2_32:WS2_32.dll
 0002:00000124       __imp_?ApplicationRecoveryCallback@CWinApp@@UAEKPAX@Z 00413124     mfc140ud:mfc140ud.dll
 0002:00000128       __imp_?GetDataRecoveryHandler@CWinApp@@UAEPAVCDataRecoveryHandler@@XZ 00413128     mfc140ud:mfc140ud.dll
 0002:0000012c       __imp_?IsTaskbarInteractionEnabled@CWinApp@@UAEHXZ 0041312c     mfc140ud:mfc140ud.dll
 0002:00000130       __imp_?InitInstance@CWinApp@@UAEHXZ 00413130     mfc140ud:mfc140ud.dll
 0002:00000134       __imp_?ExitInstance@CWinApp@@UAEHXZ 00413134     mfc140ud:mfc140ud.dll
 0002:00000138       __imp_?RestartInstance@CWinApp@@UAEHXZ 00413138     mfc140ud:mfc140ud.dll
 0002:0000013c       __imp_?Run@CWinApp@@UAEHXZ 0041313c     mfc140ud:mfc140ud.dll
 0002:00000140       __imp_?OnIdle@CWinApp@@UAEHJ@Z 00413140     mfc140ud:mfc140ud.dll
 0002:00000144       __imp_?ProcessWndProcException@CWinApp@@UAEJPAVCException@@PBUtagMSG@@@Z 00413144     mfc140ud:mfc140ud.dll
 0002:00000148       __imp_?LoadAppLangResourceDLL@CWinApp@@UAEPAUHINSTANCE__@@XZ 00413148     mfc140ud:mfc140ud.dll
 0002:0000014c       __imp_??1CWinApp@@UAE@XZ   0041314c     mfc140ud:mfc140ud.dll
 0002:00000150       __imp_?AssertValid@CWinApp@@UBEXXZ 00413150     mfc140ud:mfc140ud.dll
 0002:00000154       __imp_?Dump@CWinApp@@UBEXAAVCDumpContext@@@Z 00413154     mfc140ud:mfc140ud.dll
 0002:00000158       __imp_?LoadSysPolicies@CWinApp@@UAEHXZ 00413158     mfc140ud:mfc140ud.dll
 0002:0000015c       __imp_?AfxEnableControlContainer@@YAXPAVCOccManager@@@Z 0041315c     mfc140ud:mfc140ud.dll
 0002:00000160       __imp_??1CListCtrl@@UAE@XZ 00413160     mfc140ud:mfc140ud.dll
 0002:00000164       __imp_??1CTreeCtrl@@UAE@XZ 00413164     mfc140ud:mfc140ud.dll
 0002:00000168       __imp_??3@YAXPAX@Z         00413168     mfc140ud:mfc140ud.dll
 0002:0000016c       __imp_?GetThisMessageMap@CDialog@@KGPBUAFX_MSGMAP@@XZ 0041316c     mfc140ud:mfc140ud.dll
 0002:00000170       __imp_??B?$CSimpleStringT@_W$00@ATL@@QBEPB_WXZ 00413170     mfc140ud:mfc140ud.dll
 0002:00000174       __imp_?Empty@?$CSimpleStringT@_W$00@ATL@@QAEXXZ 00413174     mfc140ud:mfc140ud.dll
 0002:00000178       __imp_?GetAt@?$CSimpleStringT@_W$00@ATL@@QBE_WH@Z 00413178     mfc140ud:mfc140ud.dll
 0002:0000017c       __imp_?GetLength@?$CSimpleStringT@_W$00@ATL@@QBEHXZ 0041317c     mfc140ud:mfc140ud.dll
 0002:00000180       __imp_?IsEmpty@?$CSimpleStringT@_W$00@ATL@@QBE_NXZ 00413180     mfc140ud:mfc140ud.dll
 0002:00000184       __imp_?StringLength@?$CSimpleStringT@_W$00@ATL@@SAHPB_W@Z 00413184     mfc140ud:mfc140ud.dll
 0002:00000188       __imp_?Concatenate@?$CSimpleStringT@_W$00@ATL@@KAXAAV12@PB_WH1H@Z 00413188     mfc140ud:mfc140ud.dll
 0002:0000018c       __imp_??0?$CStringT@_WV?$StrTraitMFC_DLL@_WV?$ChTraitsCRT@_W@ATL@@@@@ATL@@QAE@XZ 0041318c     mfc140ud:mfc140ud.dll
 0002:00000190       __imp_??0?$CStringT@_WV?$StrTraitMFC_DLL@_WV?$ChTraitsCRT@_W@ATL@@@@@ATL@@QAE@PAUIAtlStringMgr@1@@Z 00413190     mfc140ud:mfc140ud.dll
 0002:00000194       __imp_??0?$CStringT@_WV?$StrTraitMFC_DLL@_WV?$ChTraitsCRT@_W@ATL@@@@@ATL@@QAE@ABV01@@Z 00413194     mfc140ud:mfc140ud.dll
 0002:00000198       __imp_??0?$CStringT@_WV?$StrTraitMFC_DLL@_WV?$ChTraitsCRT@_W@ATL@@@@@ATL@@QAE@PBD@Z 00413198     mfc140ud:mfc140ud.dll
 0002:0000019c       __imp_??1?$CStringT@_WV?$StrTraitMFC_DLL@_WV?$ChTraitsCRT@_W@ATL@@@@@ATL@@QAE@XZ 0041319c     mfc140ud:mfc140ud.dll
 0002:000001a0       __imp_??4?$CStringT@_WV?$StrTraitMFC_DLL@_WV?$ChTraitsCRT@_W@ATL@@@@@ATL@@QAEAAV01@ABV01@@Z 004131a0     mfc140ud:mfc140ud.dll
 0002:000001a4       __imp_?GetManager@?$CStringT@_WV?$StrTraitMFC_DLL@_WV?$ChTraitsCRT@_W@ATL@@@@@ATL@@QBEPAUIAtlStringMgr@2@XZ 004131a4     mfc140ud:mfc140ud.dll
 0002:000001a8       __imp_?Format@?$CStringT@_WV?$StrTraitMFC_DLL@_WV?$ChTraitsCRT@_W@ATL@@@@@ATL@@QAAXPB_WZZ 004131a8     mfc140ud:mfc140ud.dll
 0002:000001ac       __imp_?AppendFormat@?$CStringT@_WV?$StrTraitMFC_DLL@_WV?$ChTraitsCRT@_W@ATL@@@@@ATL@@QAAXPB_WZZ 004131ac     mfc140ud:mfc140ud.dll
 0002:000001b0       __imp_?LoadStringW@?$CStringT@_WV?$StrTraitMFC_DLL@_WV?$ChTraitsCRT@_W@ATL@@@@@ATL@@QAEHI@Z 004131b0     mfc140ud:mfc140ud.dll
 0002:000001b4       __imp_??0CFileFind@@QAE@XZ 004131b4     mfc140ud:mfc140ud.dll
 0002:000001b8       __imp_??1CFileFind@@UAE@XZ 004131b8     mfc140ud:mfc140ud.dll
 0002:000001bc       __imp_?FindFile@CFileFind@@UAEHPB_WK@Z 004131bc     mfc140ud:mfc140ud.dll
 0002:000001c0       __imp_??0CPtrList@@QAE@H@Z 004131c0     mfc140ud:mfc140ud.dll
 0002:000001c4       __imp_?GetCount@CPtrList@@QBEHXZ 004131c4     mfc140ud:mfc140ud.dll
 0002:000001c8       __imp_?IsEmpty@CPtrList@@QBEHXZ 004131c8     mfc140ud:mfc140ud.dll
 0002:000001cc       __imp_?AddTail@CPtrList@@QAEPAU__POSITION@@PAX@Z 004131cc     mfc140ud:mfc140ud.dll
 0002:000001d0       __imp_?RemoveAll@CPtrList@@QAEXXZ 004131d0     mfc140ud:mfc140ud.dll
 0002:000001d4       __imp_?GetAt@CPtrList@@QAEAAPAXPAU__POSITION@@@Z 004131d4     mfc140ud:mfc140ud.dll
 0002:000001d8       __imp_?FindIndex@CPtrList@@QBEPAU__POSITION@@H@Z 004131d8     mfc140ud:mfc140ud.dll
 0002:000001dc       __imp_?GetSafeHdc@CDC@@QBEPAUHDC__@@XZ 004131dc     mfc140ud:mfc140ud.dll
 0002:000001e0       __imp_?DrawIcon@CDC@@QAEHHHPAUHICON__@@@Z 004131e0     mfc140ud:mfc140ud.dll
 0002:000001e4       __imp_??0CPaintDC@@QAE@PAVCWnd@@@Z 004131e4     mfc140ud:mfc140ud.dll
 0002:000001e8       __imp_??1CPaintDC@@UAE@XZ  004131e8     mfc140ud:mfc140ud.dll
 0002:000001ec       __imp_?AppendMenuW@CMenu@@QAEHIIPB_W@Z 004131ec     mfc140ud:mfc140ud.dll
 0002:000001f0       __imp_?DDX_Control@@YGXPAVCDataExchange@@HAAVCWnd@@@Z 004131f0     mfc140ud:mfc140ud.dll
 0002:000001f4       __imp_?PreSubclassWindow@CWnd@@UAEXXZ 004131f4     mfc140ud:mfc140ud.dll
 0002:000001f8       __imp_?Create@CWnd@@UAEHPB_W0KABUtagRECT@@PAV1@IPAUCCreateContext@@@Z 004131f8     mfc140ud:mfc140ud.dll
 0002:000001fc       __imp_?CreateEx@CWnd@@UAEHKPB_W0KHHHHPAUHWND__@@PAUHMENU__@@PAX@Z 004131fc     mfc140ud:mfc140ud.dll
 0002:00000200       __imp_?CreateEx@CWnd@@UAEHKPB_W0KABUtagRECT@@PAV1@IPAX@Z 00413200     mfc140ud:mfc140ud.dll
 0002:00000204       __imp_?DestroyWindow@CWnd@@UAEHXZ 00413204     mfc140ud:mfc140ud.dll
 0002:00000208       __imp_?PreCreateWindow@CWnd@@UAEHAAUtagCREATESTRUCTW@@@Z 00413208     mfc140ud:mfc140ud.dll
 0002:0000020c       __imp_?CalcWindowRect@CWnd@@UAEXPAUtagRECT@@I@Z 0041320c     mfc140ud:mfc140ud.dll
 0002:00000210       __imp_?SendMessageW@CWnd@@QBEJIIJ@Z 00413210     mfc140ud:mfc140ud.dll
 0002:00000214       __imp_?SetWindowTextW@CWnd@@QAEXPB_W@Z 00413214     mfc140ud:mfc140ud.dll
 0002:00000218       __imp_?GetMenu@CWnd@@UBEPAVCMenu@@XZ 00413218     mfc140ud:mfc140ud.dll
 0002:0000021c       __imp_?SetMenu@CWnd@@UAEHPAVCMenu@@@Z 0041321c     mfc140ud:mfc140ud.dll
 0002:00000220       __imp_?GetSystemMenu@CWnd@@QBEPAVCMenu@@H@Z 00413220     mfc140ud:mfc140ud.dll
 0002:00000224       __imp_?IsIconic@CWnd@@QBEHXZ 00413224     mfc140ud:mfc140ud.dll
 0002:00000228       __imp_?GetClientRect@CWnd@@QBEXPAUtagRECT@@@Z 00413228     mfc140ud:mfc140ud.dll
 0002:0000022c       __imp_?ShowWindow@CWnd@@QAEHH@Z 0041322c     mfc140ud:mfc140ud.dll
 0002:00000230       __imp_?OnToolHitTest@CWnd@@UBEHVCPoint@@PAUtagTOOLINFOW@@@Z 00413230     mfc140ud:mfc140ud.dll
 0002:00000234       __imp_?EnableWindow@CWnd@@QAEHH@Z 00413234     mfc140ud:mfc140ud.dll
 0002:00000238       __imp_?GetScrollBarCtrl@CWnd@@UBEPAVCScrollBar@@H@Z 00413238     mfc140ud:mfc140ud.dll
 0002:0000023c       __imp_?MessageBoxW@CWnd@@QAEHPB_W0I@Z 0041323c     mfc140ud:mfc140ud.dll
 0002:00000240       __imp_?SetIcon@CWnd@@QAEPAUHICON__@@PAU2@H@Z 00413240     mfc140ud:mfc140ud.dll
 0002:00000244       __imp_?WinHelpW@CWnd@@UAEXKI@Z 00413244     mfc140ud:mfc140ud.dll
 0002:00000248       __imp_?HtmlHelpW@CWnd@@UAEXKI@Z 00413248     mfc140ud:mfc140ud.dll
 0002:0000024c       __imp_?WinHelpInternal@CWnd@@UAEXKI@Z 0041324c     mfc140ud:mfc140ud.dll
 0002:00000250       __imp_?ContinueModal@CWnd@@UAEHXZ 00413250     mfc140ud:mfc140ud.dll
 0002:00000254       __imp_?EndModalLoop@CWnd@@UAEXH@Z 00413254     mfc140ud:mfc140ud.dll
 0002:00000258       __imp_?OnDrawIconicThumbnailOrLivePreview@CWnd@@UAEXAAVCDC@@VCRect@@VCSize@@HAAH@Z 00413258     mfc140ud:mfc140ud.dll
 0002:0000025c       __imp_?GetInterfaceMap@CWnd@@MBEPBUAFX_INTERFACEMAP@@XZ 0041325c     mfc140ud:mfc140ud.dll
 0002:00000260       __imp_?EnsureStdObj@CWnd@@UAEJXZ 00413260     mfc140ud:mfc140ud.dll
 0002:00000264       __imp_?WinHelpW@CWinApp@@UAEXKI@Z 00413264     mfc140ud:mfc140ud.dll
 0002:00000268       __imp_?get_accChildCount@CWnd@@UAEJPAJ@Z 00413268     mfc140ud:mfc140ud.dll
 0002:0000026c       __imp_?get_accChild@CWnd@@UAEJUtagVARIANT@@PAPAUIDispatch@@@Z 0041326c     mfc140ud:mfc140ud.dll
 0002:00000270       __imp_?get_accName@CWnd@@UAEJUtagVARIANT@@PAPA_W@Z 00413270     mfc140ud:mfc140ud.dll
 0002:00000274       __imp_?get_accValue@CWnd@@UAEJUtagVARIANT@@PAPA_W@Z 00413274     mfc140ud:mfc140ud.dll
 0002:00000278       __imp_?get_accDescription@CWnd@@UAEJUtagVARIANT@@PAPA_W@Z 00413278     mfc140ud:mfc140ud.dll
 0002:0000027c       __imp_?get_accRole@CWnd@@UAEJUtagVARIANT@@PAU2@@Z 0041327c     mfc140ud:mfc140ud.dll
 0002:00000280       __imp_?get_accState@CWnd@@UAEJUtagVARIANT@@PAU2@@Z 00413280     mfc140ud:mfc140ud.dll
 0002:00000284       __imp_?get_accHelp@CWnd@@UAEJUtagVARIANT@@PAPA_W@Z 00413284     mfc140ud:mfc140ud.dll
 0002:00000288       __imp_?get_accHelpTopic@CWnd@@UAEJPAPA_WUtagVARIANT@@PAJ@Z 00413288     mfc140ud:mfc140ud.dll
 0002:0000028c       __imp_?get_accKeyboardShortcut@CWnd@@UAEJUtagVARIANT@@PAPA_W@Z 0041328c     mfc140ud:mfc140ud.dll
 0002:00000290       __imp_?get_accFocus@CWnd@@UAEJPAUtagVARIANT@@@Z 00413290     mfc140ud:mfc140ud.dll
 0002:00000294       __imp_?get_accSelection@CWnd@@UAEJPAUtagVARIANT@@@Z 00413294     mfc140ud:mfc140ud.dll
 0002:00000298       __imp_?get_accDefaultAction@CWnd@@UAEJUtagVARIANT@@PAPA_W@Z 00413298     mfc140ud:mfc140ud.dll
 0002:0000029c       __imp_?accSelect@CWnd@@UAEJJUtagVARIANT@@@Z 0041329c     mfc140ud:mfc140ud.dll
 0002:000002a0       __imp_?accLocation@CWnd@@UAEJPAJ000UtagVARIANT@@@Z 004132a0     mfc140ud:mfc140ud.dll
 0002:000002a4       __imp_?accNavigate@CWnd@@UAEJJUtagVARIANT@@PAU2@@Z 004132a4     mfc140ud:mfc140ud.dll
 0002:000002a8       __imp_?accHitTest@CWnd@@UAEJJJPAUtagVARIANT@@@Z 004132a8     mfc140ud:mfc140ud.dll
 0002:000002ac       __imp_?accDoDefaultAction@CWnd@@UAEJUtagVARIANT@@@Z 004132ac     mfc140ud:mfc140ud.dll
 0002:000002b0       __imp_?put_accName@CWnd@@UAEJUtagVARIANT@@PA_W@Z 004132b0     mfc140ud:mfc140ud.dll
 0002:000002b4       __imp_?put_accValue@CWnd@@UAEJUtagVARIANT@@PA_W@Z 004132b4     mfc140ud:mfc140ud.dll
 0002:000002b8       __imp_?SetProxy@CWnd@@UAEJPAUIAccessibleProxy@@@Z 004132b8     mfc140ud:mfc140ud.dll
 0002:000002bc       __imp_?CreateAccessibleProxy@CWnd@@UAEJIJPAJ@Z 004132bc     mfc140ud:mfc140ud.dll
 0002:000002c0       __imp_?OnCommand@CWnd@@MAEHIJ@Z 004132c0     mfc140ud:mfc140ud.dll
 0002:000002c4       __imp_?OnNotify@CWnd@@MAEHIJPAJ@Z 004132c4     mfc140ud:mfc140ud.dll
 0002:000002c8       __imp_?OnSysCommand@CWnd@@IAEXIJ@Z 004132c8     mfc140ud:mfc140ud.dll
 0002:000002cc       __imp_?GetSuperWndProcAddr@CWnd@@MAEPAP6GJPAUHWND__@@IIJ@ZXZ 004132cc     mfc140ud:mfc140ud.dll
 0002:000002d0       __imp_?DoDataExchange@CWnd@@MAEXPAVCDataExchange@@@Z 004132d0     mfc140ud:mfc140ud.dll
 0002:000002d4       __imp_?BeginModalState@CWnd@@UAEXXZ 004132d4     mfc140ud:mfc140ud.dll
 0002:000002d8       __imp_?EndModalState@CWnd@@UAEXXZ 004132d8     mfc140ud:mfc140ud.dll
 0002:000002dc       __imp_?OnAmbientProperty@CWnd@@UAEHPAVCOleControlSite@@JPAUtagVARIANT@@@Z 004132dc     mfc140ud:mfc140ud.dll
 0002:000002e0       __imp_?WindowProc@CWnd@@MAEJIIJ@Z 004132e0     mfc140ud:mfc140ud.dll
 0002:000002e4       __imp_?OnWndMsg@CWnd@@MAEHIIJPAJ@Z 004132e4     mfc140ud:mfc140ud.dll
 0002:000002e8       __imp_?RegisterWithRestartManager@CWinApp@@UAEJHABV?$CStringT@_WV?$StrTraitMFC_DLL@_WV?$ChTraitsCRT@_W@ATL@@@@@ATL@@@Z 004132e8     mfc140ud:mfc140ud.dll
 0002:000002ec       __imp_?PostNcDestroy@CWnd@@MAEXXZ 004132ec     mfc140ud:mfc140ud.dll
 0002:000002f0       __imp_?OnChildNotify@CWnd@@MAEHIIJPAJ@Z 004132f0     mfc140ud:mfc140ud.dll
 0002:000002f4       __imp_?OnTouchInputs@CWnd@@MAEHIPAUtagTOUCHINPUT@@@Z 004132f4     mfc140ud:mfc140ud.dll
 0002:000002f8       __imp_?OnTouchInput@CWnd@@MAEHVCPoint@@HHPAUtagTOUCHINPUT@@@Z 004132f8     mfc140ud:mfc140ud.dll
 0002:000002fc       __imp_?GetGestureStatus@CWnd@@MAEKVCPoint@@@Z 004132fc     mfc140ud:mfc140ud.dll
 0002:00000300       __imp_?OnGestureZoom@CWnd@@MAEHVCPoint@@J@Z 00413300     mfc140ud:mfc140ud.dll
 0002:00000304       __imp_?OnGesturePan@CWnd@@MAEHVCPoint@@0@Z 00413304     mfc140ud:mfc140ud.dll
 0002:00000308       __imp_?OnGestureRotate@CWnd@@MAEHVCPoint@@N@Z 00413308     mfc140ud:mfc140ud.dll
 0002:0000030c       __imp_?OnGestureTwoFingerTap@CWnd@@MAEHVCPoint@@@Z 0041330c     mfc140ud:mfc140ud.dll
 0002:00000310       __imp_?OnGesturePressAndTap@CWnd@@MAEHVCPoint@@J@Z 00413310     mfc140ud:mfc140ud.dll
 0002:00000314       __imp_?ResizeDynamicLayout@CWnd@@MAEXXZ 00413314     mfc140ud:mfc140ud.dll
 0002:00000318       __imp_?IsFrameWnd@CWnd@@UBEHXZ 00413318     mfc140ud:mfc140ud.dll
 0002:0000031c       __imp_?OnFinalRelease@CWnd@@UAEXXZ 0041331c     mfc140ud:mfc140ud.dll
 0002:00000320       __imp_?CreateControlContainer@CWnd@@MAEHPAPAVCOleControlContainer@@@Z 00413320     mfc140ud:mfc140ud.dll
 0002:00000324       __imp_?CreateControlSite@CWnd@@MAEHPAVCOleControlContainer@@PAPAVCOleControlSite@@IABU_GUID@@@Z 00413324     mfc140ud:mfc140ud.dll
 0002:00000328       __imp_?GetRuntimeClass@CDialog@@UBEPAUCRuntimeClass@@XZ 00413328     mfc140ud:mfc140ud.dll
 0002:0000032c       __imp_?Create@CDialog@@UAEHPB_WPAVCWnd@@@Z 0041332c     mfc140ud:mfc140ud.dll
 0002:00000330       __imp_?Create@CDialog@@UAEHIPAVCWnd@@@Z 00413330     mfc140ud:mfc140ud.dll
 0002:00000334       __imp_?CreateIndirect@CDialog@@UAEHPBUDLGTEMPLATE@@PAVCWnd@@PAX@Z 00413334     mfc140ud:mfc140ud.dll
 0002:00000338       __imp_?CreateIndirect@CDialog@@UAEHPAXPAVCWnd@@@Z 00413338     mfc140ud:mfc140ud.dll
 0002:0000033c       __imp_??0CDialog@@QAE@IPAVCWnd@@@Z 0041333c     mfc140ud:mfc140ud.dll
 0002:00000340       __imp_?OnInitDialog@CDialog@@UAEHXZ 00413340     mfc140ud:mfc140ud.dll
 0002:00000344       __imp_?OnSetFont@CDialog@@UAEXPAVCFont@@@Z 00413344     mfc140ud:mfc140ud.dll
 0002:00000348       __imp_?OnOK@CDialog@@MAEXXZ 00413348     mfc140ud:mfc140ud.dll
 0002:0000034c       __imp_?OnCancel@CDialog@@MAEXXZ 0041334c     mfc140ud:mfc140ud.dll
 0002:00000350       __imp_?AssertValid@CDialog@@UBEXXZ 00413350     mfc140ud:mfc140ud.dll
 0002:00000354       __imp_?Dump@CDialog@@UBEXAAVCDumpContext@@@Z 00413354     mfc140ud:mfc140ud.dll
 0002:00000358       __imp_?PreTranslateMessage@CDialog@@UAEHPAUtagMSG@@@Z 00413358     mfc140ud:mfc140ud.dll
 0002:0000035c       __imp_?OnCmdMsg@CDialog@@UAEHIHPAXPAUAFX_CMDHANDLERINFO@@@Z 0041335c     mfc140ud:mfc140ud.dll
 0002:00000360       __imp_?CheckAutoCenter@CDialog@@UAEHXZ 00413360     mfc140ud:mfc140ud.dll
 0002:00000364       __imp_?SetOccDialogInfo@CDialog@@MAEHPAU_AFX_OCC_DIALOG_INFO@@@Z 00413364     mfc140ud:mfc140ud.dll
 0002:00000368       __imp_?GetOccDialogInfo@CDialog@@MAEPAU_AFX_OCC_DIALOG_INFO@@XZ 00413368     mfc140ud:mfc140ud.dll
 0002:0000036c       __imp_?PreInitDialog@CDialog@@MAEXXZ 0041336c     mfc140ud:mfc140ud.dll
 0002:00000370       __imp_?OnPaint@CDialog@@IAEXXZ 00413370     mfc140ud:mfc140ud.dll
 0002:00000374       __imp_??0CButton@@QAE@XZ   00413374     mfc140ud:mfc140ud.dll
 0002:00000378       __imp_??0CComboBox@@QAE@XZ 00413378     mfc140ud:mfc140ud.dll
 0002:0000037c       __imp_?GetCurSel@CComboBox@@QBEHXZ 0041337c     mfc140ud:mfc140ud.dll
 0002:00000380       __imp_?SetCurSel@CComboBox@@QAEHH@Z 00413380     mfc140ud:mfc140ud.dll
 0002:00000384       __imp_?GetLBText@CComboBox@@QBEXHAAV?$CStringT@_WV?$StrTraitMFC_DLL@_WV?$ChTraitsCRT@_W@ATL@@@@@ATL@@@Z 00413384     mfc140ud:mfc140ud.dll
 0002:00000388       __imp_?AddString@CComboBox@@QAEHPB_W@Z 00413388     mfc140ud:mfc140ud.dll
 0002:0000038c       __imp_??0CEdit@@QAE@XZ     0041338c     mfc140ud:mfc140ud.dll
 0002:00000390       __imp_?AfxGetApp@@YGPAVCWinApp@@XZ 00413390     mfc140ud:mfc140ud.dll
 0002:00000394       __imp_?LoadIconW@CWinApp@@QBEPAUHICON__@@I@Z 00413394     mfc140ud:mfc140ud.dll
 0002:00000398       __imp_?GetOFN@CFileDialog@@QAEAAUtagOFNW@@XZ 00413398     mfc140ud:mfc140ud.dll
 0002:0000039c       __imp_??0CFileDialog@@QAE@HPB_W0K0PAVCWnd@@KH@Z 0041339c     mfc140ud:mfc140ud.dll
 0002:000003a0       __imp_??1CFileDialog@@UAE@XZ 004133a0     mfc140ud:mfc140ud.dll
 0002:000003a4       __imp_?DoModal@CFileDialog@@UAEHXZ 004133a4     mfc140ud:mfc140ud.dll
 0002:000003a8       __imp_?GetPathName@CFileDialog@@QBE?AV?$CStringT@_WV?$StrTraitMFC_DLL@_WV?$ChTraitsCRT@_W@ATL@@@@@ATL@@XZ 004133a8     mfc140ud:mfc140ud.dll
 0002:000003ac       __imp_??0CBitmapButton@@QAE@XZ 004133ac     mfc140ud:mfc140ud.dll
 0002:000003b0       __imp_??0CListCtrl@@QAE@XZ 004133b0     mfc140ud:mfc140ud.dll
 0002:000003b4       __imp_?SetItemText@CListCtrl@@QAEHHHPB_W@Z 004133b4     mfc140ud:mfc140ud.dll
 0002:000003b8       __imp_?GetHotItem@CListCtrl@@QBEHXZ 004133b8     mfc140ud:mfc140ud.dll
 0002:000003bc       __imp_?SetExtendedStyle@CListCtrl@@QAEKK@Z 004133bc     mfc140ud:mfc140ud.dll
 0002:000003c0       __imp_?InsertItem@CListCtrl@@QAEHHPB_W@Z 004133c0     mfc140ud:mfc140ud.dll
 0002:000003c4       __imp_?DeleteAllItems@CListCtrl@@QAEHXZ 004133c4     mfc140ud:mfc140ud.dll
 0002:000003c8       __imp_?InsertColumn@CListCtrl@@QAEHHPB_WHHH@Z 004133c8     mfc140ud:mfc140ud.dll
 0002:000003cc       __imp_??0CTreeCtrl@@QAE@XZ 004133cc     mfc140ud:mfc140ud.dll
 0002:000003d0       __imp_?GetRootItem@CTreeCtrl@@QBEPAU_TREEITEM@@XZ 004133d0     mfc140ud:mfc140ud.dll
 0002:000003d4       __imp_?InsertItem@CTreeCtrl@@QAEPAU_TREEITEM@@PB_WPAU2@1@Z 004133d4     mfc140ud:mfc140ud.dll
 0002:000003d8       __imp_?DeleteAllItems@CTreeCtrl@@QAEHXZ 004133d8     mfc140ud:mfc140ud.dll
 0002:000003dc       __imp_?Append@?$CSimpleStringT@_W$00@ATL@@QAEXPB_W@Z 004133dc     mfc140ud:mfc140ud.dll
 0002:000003e0       __imp_?OnDDECommand@CWinApp@@UAEHPA_W@Z 004133e0     mfc140ud:mfc140ud.dll
 0002:000003e4       __imp_?DoWaitCursor@CWinApp@@UAEXH@Z 004133e4     mfc140ud:mfc140ud.dll
 0002:000003e8       __imp_?DoMessageBox@CWinApp@@UAEHPB_WII@Z 004133e8     mfc140ud:mfc140ud.dll
 0002:000003ec       __imp_?SaveAllModified@CWinApp@@UAEHXZ 004133ec     mfc140ud:mfc140ud.dll
 0002:000003f0       __imp_?InitApplication@CWinApp@@UAEHXZ 004133f0     mfc140ud:mfc140ud.dll
 0002:000003f4       __imp_?AddToRecentFileList@CWinApp@@UAEXPB_W@Z 004133f4     mfc140ud:mfc140ud.dll
 0002:000003f8       __imp_?OpenDocumentFile@CWinApp@@UAEPAVCDocument@@PB_WH@Z 004133f8     mfc140ud:mfc140ud.dll
 0002:000003fc       __imp_?OpenDocumentFile@CWinApp@@UAEPAVCDocument@@PB_W@Z 004133fc     mfc140ud:mfc140ud.dll
 0002:00000400       __imp_?Unregister@CWinApp@@UAEHXZ 00413400     mfc140ud:mfc140ud.dll
 0002:00000404       __imp_?Register@CWinApp@@UAEHXZ 00413404     mfc140ud:mfc140ud.dll
 0002:00000408       __imp_?InitLibId@CWinApp@@UAEXXZ 00413408     mfc140ud:mfc140ud.dll
 0002:0000040c       __imp_?WriteProfileBinary@CWinApp@@UAEHPB_W0PAEI@Z 0041340c     mfc140ud:mfc140ud.dll
 0002:00000410       __imp_?GetProfileBinary@CWinApp@@UAEHPB_W0PAPAEPAI@Z 00413410     mfc140ud:mfc140ud.dll
 0002:00000414       __imp_?WriteProfileStringW@CWinApp@@UAEHPB_W00@Z 00413414     mfc140ud:mfc140ud.dll
 0002:00000418       __imp_?GetProfileStringW@CWinApp@@UAE?AV?$CStringT@_WV?$StrTraitMFC_DLL@_WV?$ChTraitsCRT@_W@ATL@@@@@ATL@@PB_W00@Z 00413418     mfc140ud:mfc140ud.dll
 0002:0000041c       __imp_?WriteProfileInt@CWinApp@@UAEHPB_W0H@Z 0041341c     mfc140ud:mfc140ud.dll
 0002:00000420       __imp_?GetProfileIntW@CWinApp@@UAEIPB_W0H@Z 00413420     mfc140ud:mfc140ud.dll
 0002:00000424       __imp_?SetRegistryKey@CWinApp@@IAEXPB_W@Z 00413424     mfc140ud:mfc140ud.dll
 0002:00000428       __imp_??0CWinApp@@QAE@PB_W@Z 00413428     mfc140ud:mfc140ud.dll
 0002:0000042c       __imp_?GetRuntimeClass@CWinApp@@UBEPAUCRuntimeClass@@XZ 0041342c     mfc140ud:mfc140ud.dll
 0002:00000430       __imp_?Delete@CWinThread@@UAEXXZ 00413430     mfc140ud:mfc140ud.dll
 0002:00000434       __imp_?GetMainWnd@CWinThread@@UAEPAVCWnd@@XZ 00413434     mfc140ud:mfc140ud.dll
 0002:00000438       __imp_?ProcessMessageFilter@CWinThread@@UAEHHPAUtagMSG@@@Z 00413438     mfc140ud:mfc140ud.dll
 0002:0000043c       __imp_?IsIdleMessage@CWinThread@@UAEHPAUtagMSG@@@Z 0041343c     mfc140ud:mfc140ud.dll
 0002:00000440       __imp_?PumpMessage@CWinThread@@UAEHXZ 00413440     mfc140ud:mfc140ud.dll
 0002:00000444       __imp_?PreTranslateMessage@CWinThread@@UAEHPAUtagMSG@@@Z 00413444     mfc140ud:mfc140ud.dll
 0002:00000448       __imp_??1CEdit@@UAE@XZ     00413448     mfc140ud:mfc140ud.dll
 0002:0000044c       __imp_??1CComboBox@@UAE@XZ 0041344c     mfc140ud:mfc140ud.dll
 0002:00000450       __imp_??1CButton@@UAE@XZ   00413450     mfc140ud:mfc140ud.dll
 0002:00000454       __imp_??1CDialog@@UAE@XZ   00413454     mfc140ud:mfc140ud.dll
 0002:00000458       __imp_?DoModal@CDialog@@UAEHXZ 00413458     mfc140ud:mfc140ud.dll
 0002:0000045c       __imp_?GetConnectionHook@CCmdTarget@@MAEPAUIConnectionPoint@@ABU_GUID@@@Z 0041345c     mfc140ud:mfc140ud.dll
 0002:00000460       __imp_?GetExtraConnectionPoints@CCmdTarget@@MAEHPAVCPtrArray@@@Z 00413460     mfc140ud:mfc140ud.dll
 0002:00000464       __imp_?GetInterfaceHook@CCmdTarget@@UAEPAUIUnknown@@PBX@Z 00413464     mfc140ud:mfc140ud.dll
 0002:00000468       __imp_?OnCreateAggregates@CCmdTarget@@UAEHXZ 00413468     mfc140ud:mfc140ud.dll
 0002:0000046c       __imp_?GetEventSinkMap@CCmdTarget@@MBEPBUAFX_EVENTSINKMAP@@XZ 0041346c     mfc140ud:mfc140ud.dll
 0002:00000470       __imp_?GetInterfaceMap@CCmdTarget@@MBEPBUAFX_INTERFACEMAP@@XZ 00413470     mfc140ud:mfc140ud.dll
 0002:00000474       __imp_?GetConnectionMap@CCmdTarget@@MBEPBUAFX_CONNECTIONMAP@@XZ 00413474     mfc140ud:mfc140ud.dll
 0002:00000478       __imp_?GetDispatchMap@CCmdTarget@@MBEPBUAFX_DISPMAP@@XZ 00413478     mfc140ud:mfc140ud.dll
 0002:0000047c       __imp_?GetCommandMap@CCmdTarget@@MBEPBUAFX_OLECMDMAP@@XZ 0041347c     mfc140ud:mfc140ud.dll
 0002:00000480       __imp_?GetTypeLib@CCmdTarget@@UAEJKPAPAUITypeLib@@@Z 00413480     mfc140ud:mfc140ud.dll
 0002:00000484       __imp_?GetTypeLibCache@CCmdTarget@@UAEPAVCTypeLibCache@@XZ 00413484     mfc140ud:mfc140ud.dll
 0002:00000488       __imp_?GetTypeInfoCount@CCmdTarget@@UAEIXZ 00413488     mfc140ud:mfc140ud.dll
 0002:0000048c       __imp_?GetDispatchIID@CCmdTarget@@UAEHPAU_GUID@@@Z 0041348c     mfc140ud:mfc140ud.dll
 0002:00000490       __imp_?IsInvokeAllowed@CCmdTarget@@UAEHJ@Z 00413490     mfc140ud:mfc140ud.dll
 0002:00000494       __imp_?OnFinalRelease@CCmdTarget@@UAEXXZ 00413494     mfc140ud:mfc140ud.dll
 0002:00000498       __imp_?OnCmdMsg@CCmdTarget@@UAEHIHPAXPAUAFX_CMDHANDLERINFO@@@Z 00413498     mfc140ud:mfc140ud.dll
 0002:0000049c       __imp_??1CBitmap@@UAE@XZ   0041349c     mfc140ud:mfc140ud.dll
 0002:000004a0       __imp_??1CPtrList@@UAE@XZ  004134a0     mfc140ud:mfc140ud.dll
 0002:000004a4       __imp_?Serialize@CObject@@UAEXAAVCArchive@@@Z 004134a4     mfc140ud:mfc140ud.dll
 0002:000004a8       __imp_??3CObject@@SGXPAX@Z 004134a8     mfc140ud:mfc140ud.dll
 0002:000004ac       __imp_?GetThisMessageMap@CWinApp@@KGPBUAFX_MSGMAP@@XZ 004134ac     mfc140ud:mfc140ud.dll
 0002:000004b0       __imp_?OnHelp@CWinApp@@IAEXXZ 004134b0     mfc140ud:mfc140ud.dll
 0002:000004b4       __imp_?RegisterWithRestartManager@CWinApp@@UAEJPB_WKP6GKPAX@Z1KK@Z 004134b4     mfc140ud:mfc140ud.dll
 0002:000004b8       __imp_?WinHelpInternal@CWinApp@@UAEXKI@Z 004134b8     mfc140ud:mfc140ud.dll
 0002:000004bc       __imp_?AfxWinMain@@YGHPAUHINSTANCE__@@0PA_WH@Z 004134bc     mfc140ud:mfc140ud.dll
 0002:000004c0       __imp_?HtmlHelpW@CWinApp@@UAEXKI@Z 004134c0     mfc140ud:mfc140ud.dll
 0002:000004c4       __imp_?AfxGetModuleState@@YGPAVAFX_MODULE_STATE@@XZ 004134c4     mfc140ud:mfc140ud.dll
 0002:000004c8       __imp_?get_accParent@CWnd@@UAEJPAPAUIDispatch@@@Z 004134c8     mfc140ud:mfc140ud.dll
 0002:000004cc       __imp_?DefWindowProcW@CWnd@@MAEJIIJ@Z 004134cc     mfc140ud:mfc140ud.dll
 0002:000004d0       \177mfc140ud_NULL_THUNK_DATA 004134d0     mfc140ud:mfc140ud.dll
 0002:000004d4       __imp___recalloc           004134d4     ucrtd:ucrtbased.dll
 0002:000004d8       __imp___errno              004134d8     ucrtd:ucrtbased.dll
 0002:000004dc       __imp___invalid_parameter_noinfo 004134dc     ucrtd:ucrtbased.dll
 0002:000004e0       __imp___wsplitpath_s       004134e0     ucrtd:ucrtbased.dll
 0002:000004e4       __imp___wmakepath_s        004134e4     ucrtd:ucrtbased.dll
 0002:000004e8       __imp___controlfp_s        004134e8     ucrtd:ucrtbased.dll
 0002:000004ec       __imp__terminate           004134ec     ucrtd:ucrtbased.dll
 0002:000004f0       __imp__wcscpy_s            004134f0     ucrtd:ucrtbased.dll
 0002:000004f4       __imp__strcat              004134f4     ucrtd:ucrtbased.dll
 0002:000004f8       __imp__strcmp              004134f8     ucrtd:ucrtbased.dll
 0002:000004fc       __imp__strcpy              004134fc     ucrtd:ucrtbased.dll
 0002:00000500       __imp__malloc              00413500     ucrtd:ucrtbased.dll
 0002:00000504       __imp___localtime64        00413504     ucrtd:ucrtbased.dll
 0002:00000508       __imp__strftime            00413508     ucrtd:ucrtbased.dll
 0002:0000050c       __imp___time64             0041350c     ucrtd:ucrtbased.dll
 0002:00000510       __imp___CrtDbgReportW      00413510     ucrtd:ucrtbased.dll
 0002:00000514       __imp__wcslen              00413514     ucrtd:ucrtbased.dll
 0002:00000518       __imp____stdio_common_vswprintf 00413518     ucrtd:ucrtbased.dll
 0002:0000051c       __imp____stdio_common_vswprintf_s 0041351c     ucrtd:ucrtbased.dll
 0002:00000520       __imp____stdio_common_vsnwprintf_s 00413520     ucrtd:ucrtbased.dll
 0002:00000524       __imp__free                00413524     ucrtd:ucrtbased.dll
 0002:00000528       __imp__isprint             00413528     ucrtd:ucrtbased.dll
 0002:0000052c       __imp___seh_filter_exe     0041352c     ucrtd:ucrtbased.dll
 0002:00000530       __imp___set_app_type       00413530     ucrtd:ucrtbased.dll
 0002:00000534       __imp____setusermatherr    00413534     ucrtd:ucrtbased.dll
 0002:00000538       __imp___configure_wide_argv 00413538     ucrtd:ucrtbased.dll
 0002:0000053c       __imp___initialize_wide_environment 0041353c     ucrtd:ucrtbased.dll
 0002:00000540       __imp___get_wide_winmain_command_line 00413540     ucrtd:ucrtbased.dll
 0002:00000544       __imp___initterm           00413544     ucrtd:ucrtbased.dll
 0002:00000548       __imp___initterm_e         00413548     ucrtd:ucrtbased.dll
 0002:0000054c       __imp__exit                0041354c     ucrtd:ucrtbased.dll
 0002:00000550       __imp___exit               00413550     ucrtd:ucrtbased.dll
 0002:00000554       __imp___set_fmode          00413554     ucrtd:ucrtbased.dll
 0002:00000558       __imp___cexit              00413558     ucrtd:ucrtbased.dll
 0002:0000055c       __imp___c_exit             0041355c     ucrtd:ucrtbased.dll
 0002:00000560       __imp___register_thread_local_exe_atexit_callback 00413560     ucrtd:ucrtbased.dll
 0002:00000564       __imp___configthreadlocale 00413564     ucrtd:ucrtbased.dll
 0002:00000568       __imp___set_new_mode       00413568     ucrtd:ucrtbased.dll
 0002:0000056c       __imp____p__commode        0041356c     ucrtd:ucrtbased.dll
 0002:00000570       __imp___seh_filter_dll     00413570     ucrtd:ucrtbased.dll
 0002:00000574       __imp___configure_narrow_argv 00413574     ucrtd:ucrtbased.dll
 0002:00000578       __imp___initialize_narrow_environment 00413578     ucrtd:ucrtbased.dll
 0002:0000057c       __imp___initialize_onexit_table 0041357c     ucrtd:ucrtbased.dll
 0002:00000580       __imp___register_onexit_function 00413580     ucrtd:ucrtbased.dll
 0002:00000584       __imp___execute_onexit_table 00413584     ucrtd:ucrtbased.dll
 0002:00000588       __imp___crt_atexit         00413588     ucrtd:ucrtbased.dll
 0002:0000058c       __imp___crt_at_quick_exit  0041358c     ucrtd:ucrtbased.dll
 0002:00000590       __imp___CrtDbgReport       00413590     ucrtd:ucrtbased.dll
 0002:00000594       __imp__strcpy_s            00413594     ucrtd:ucrtbased.dll
 0002:00000598       __imp__strcat_s            00413598     ucrtd:ucrtbased.dll
 0002:0000059c       __imp____stdio_common_vsprintf_s 0041359c     ucrtd:ucrtbased.dll
 0002:000005a0       \177ucrtbased_NULL_THUNK_DATA 004135a0     ucrtd:ucrtbased.dll
 0002:000005a4       __imp__pcap_dump_open      004135a4     wpcap:wpcap.dll
 0002:000005a8       __imp__pcap_dump           004135a8     wpcap:wpcap.dll
 0002:000005ac       __imp__pcap_findalldevs    004135ac     wpcap:wpcap.dll
 0002:000005b0       __imp__pcap_freealldevs    004135b0     wpcap:wpcap.dll
 0002:000005b4       __imp__pcap_open_live      004135b4     wpcap:wpcap.dll
 0002:000005b8       __imp__pcap_datalink       004135b8     wpcap:wpcap.dll
 0002:000005bc       __imp__pcap_compile        004135bc     wpcap:wpcap.dll
 0002:000005c0       __imp__pcap_setfilter      004135c0     wpcap:wpcap.dll
 0002:000005c4       __imp__pcap_next_ex        004135c4     wpcap:wpcap.dll
 0002:000005c8       __imp__pcap_close          004135c8     wpcap:wpcap.dll
 0002:000005cc       __imp__pcap_open_offline   004135cc     wpcap:wpcap.dll
 0002:000005d0       \177wpcap_NULL_THUNK_DATA  004135d0     wpcap:wpcap.dll
 0002:000005d4       ___guard_check_icall_fptr  004135d4     msvcrtd:guard_support.obj
 0002:000005d8       ___xc_a                    004135d8     msvcrtd:initializers.obj
 0002:00000654       ___xc_z                    00413654     msvcrtd:initializers.obj
 0002:00000658       ___xi_a                    00413658     msvcrtd:initializers.obj
 0002:00000668       ___xi_z                    00413668     msvcrtd:initializers.obj
 0002:0000066c       ___xl_a                    0041366c     msvcrtd:tlssup.obj
 0002:00000670       ___xl_z                    00413670     msvcrtd:tlssup.obj
 0002:00000674       ___xp_a                    00413674     msvcrtd:initializers.obj
 0002:00000678       ___xp_z                    00413678     msvcrtd:initializers.obj
 0002:0000067c       ___xt_a                    0041367c     msvcrtd:initializers.obj
 0002:00000680       ___xt_z                    00413680     msvcrtd:initializers.obj
 0002:000006cc       ??_7Cmcf6App@@6B@          004136cc     mcf6.obj
 0002:000007e4       ??_C@_1CA@KINOLAIL@?$PP?$JE?$AA?$CI?$AA?$AL?$PP?$IP?$AA?$BB?$PP?$PM?$AA?$BP?$AA?$BA?$PP?$IE?$AA?0?$AA0?$PP?$JE?$AA?$CI?$AA?$AL?$PP?$IP@ 004137e4     mcf6.obj
 0002:00000920       ??_C@_17CNPHIMPH@?$AA?$CF?$AAl?$AAs@ 00413920     mcf6Dlg.obj
 0002:00000928       ??_C@_1CE@IMMADNAP@?$AAa?$AAt?$AAl?$AAT?$AAr?$AAa?$AAc?$AAe?$AAE?$AAx?$AAc?$AAe?$AAp?$AAt?$AAi@ 00413928     mcf6Dlg.obj
 0002:0000094c       ??_C@_1BO@GMLILNDJ@?$AAa?$AAt?$AAl?$AAT?$AAr?$AAa?$AAc?$AAe?$AAS?$AAt?$AAr?$AAi?$AAn?$AAg@ 0041394c     mcf6Dlg.obj
 0002:00000970       ??_C@_1EO@EBPPKGOM@?$AAf?$AAa?$AAl?$AAs?$AAe?$AA?5?$AA?$CG?$AA?$CG?$AA?5?$AA?$CC?$AAT?$AAo?$AAo?$AA?5?$AAm@ 00413970     mcf6Dlg.obj
 0002:000009c0       ??_C@_1OE@JFMCDIII@?$AAC?$AA?3?$AA?2?$AAP?$AAr?$AAo?$AAg?$AAr?$AAa?$AAm?$AA?5?$AAF?$AAi?$AAl?$AAe@ 004139c0     mcf6Dlg.obj
 0002:00000aa4       ??_C@_15KNBIKKIN@?$AA?$CF?$AAd@ 00413aa4     mcf6Dlg.obj
 0002:00000aac       ??_C@_11LOCGONAA@@         00413aac     mcf6Dlg.obj
 0002:00000ab4       ??_7Cmcf6Dlg@@6B@          00413ab4     mcf6Dlg.obj
 0002:00000c4c       ??_7CAboutDlg@@6B@         00413c4c     mcf6Dlg.obj
 0002:00000de0       ??_C@_15JFHLHGDD@?$AA?$BG?$PP?w@ 00413de0     mcf6Dlg.obj
 0002:00000de8       ??_C@_15COPIKHIO@?$PP?v?$PP?t@ 00413de8     mcf6Dlg.obj
 0002:00000df0       ??_C@_15KDINAMEL@?$AA?$HP?$PP?$KG@ 00413df0     mcf6Dlg.obj
 0002:00000df8       ??_C@_1O@DLJIOIKI@?$PP?$JA?$AAM?$AAA?$AAC?$AA0?$AA?$EA@ 00413df8     mcf6Dlg.obj
 0002:00000e08       ??_C@_1BA@PGBKIEHM@?$PP?n?$PP?$IE?$AAM?$AAA?$AAC?$AA0?$AA?$EA@ 00413e08     mcf6Dlg.obj
 0002:00000e18       ??_C@_15IPFEMJKJ@?$AAO?$PP?$KO@ 00413e18     mcf6Dlg.obj
 0002:00000e20       ??_C@_1M@KBHAKNGA@?$PP?$JA?$AAI?$AAP?$AA0?$AA?$EA@ 00413e20     mcf6Dlg.obj
 0002:00000e2c       ??_C@_1O@MOBBHHNH@?$PP?n?$PP?$IE?$AAI?$AAP?$AA0?$AA?$EA@ 00413e2c     mcf6Dlg.obj
 0002:00000e3c       ??_C@_1BM@DAGBAGEL@?$PP?w?$AA?7?$PP?i?$AA?$AA?$AA?$CK?$AAQ?$AAa?$PP?$KF?$PP?c?$AA?$CI?$PP?E?$AA?7?$AA?$CJ@ 00413e3c     mcf6Dlg.obj
 0002:00000e58       ??_C@_1BI@GLPDMHMG@?$PP?w?$AA?7?$PP?i?$PP?G?$PP?d?$PP?D?$AA?$BJ?$AA?$CI?$PP?o?$AA?7?$AA?$CJ@ 00413e58     mcf6Dlg.obj
 0002:00000e70       ??_C@_17FHJIGCJE@?$AAt?$AAc?$AAp@ 00413e70     mcf6Dlg.obj
 0002:00000e78       ??_C@_17IGDHFCLC@?$AAu?$AAd?$AAp@ 00413e78     mcf6Dlg.obj
 0002:00000e80       ??_C@_15KPJKAFC@?$AAi?$AAp@ 00413e80     mcf6Dlg.obj
 0002:00000e88       ??_C@_19LALGKDHD@?$AAi?$AAc?$AAm?$AAp@ 00413e88     mcf6Dlg.obj
 0002:00000e94       ??_C@_17KLEJIMOF@?$AAa?$AAr?$AAp@ 00413e94     mcf6Dlg.obj
 0002:00000e9c       ??_C@_15MJLKANKN@?$AAf?$AAJ@ 00413e9c     mcf6Dlg.obj
 0002:00000ea4       ??_C@_1BC@OJIACIPA@?$AAn?$PP?$KE?$AA?$AN?$PP?$NN?$AAX?$AAp?$AAn?$AA?$BP@ 00413ea4     mcf6Dlg.obj
 0002:00000eb8       ??_C@_1BK@CNOJLDEK@?$AAs?$PP?m?$PP?$LP?$AA?$AL?$AA?$BJ?$PP?o?$AA?$AM?$PP?w?$AA?$AN?$AA?$AO?$PP?M?$PP?U@ 00413eb8     mcf6Dlg.obj
 0002:00000ed4       ??_C@_19ELNFMHPP@?$AA?4?$AAl?$AAi?$AAx@ 00413ed4     mcf6Dlg.obj
 0002:00000ee0       ??_C@_17OAIDBDBP@?$AAc?$AA?3?$AA?2@ 00413ee0     mcf6Dlg.obj
 0002:00000ee8       ??_C@_04EGBOPOAP@IPV6@     00413ee8     mcf6Dlg.obj
 0002:00000ef0       ??_C@_03OPEAKHDL@UDP@      00413ef0     mcf6Dlg.obj
 0002:00000ef4       ??_C@_03FCLDNGNL@TCP@      00413ef4     mcf6Dlg.obj
 0002:00000ef8       ??_C@_03CIJALIDB@ARP@      00413ef8     mcf6Dlg.obj
 0002:00000efc       ??_C@_04CHGGIGMO@ICMP@     00413efc     mcf6Dlg.obj
 0002:00000f04       ??_C@_04MEDPFIKH@HTTP@     00413f04     mcf6Dlg.obj
 0002:00000f0c       ??_C@_06IIMCHOCE@ICMPv6@   00413f0c     mcf6Dlg.obj
 0002:00000f14       ??_C@_1BK@MFEEJCAL@?$PP?w?$AA?7?$PP?i?$AA?$AA?$AA?$CK?$AA?$AI?$AA?$AC?$PP?$IE?$AAQ?$AAa?$PP?$KF?$PP?c@ 00413f14     mcf6Dlg.obj
 0002:00000f30       ??_C@_1BA@DCAGAEBG@?$PP?G?$PP?d?$AAh?$AA?7?$PP?i?$AA?$BJ?$PP?o@ 00413f30     mcf6Dlg.obj
 0002:00000f40       ??_C@_1BA@GLMJMPBF@?$PP?$OA?$PP?U?$AAS?$AA?$AA?$PP?$KF?$PP?c?$AA?$BK@ 00413f40     mcf6Dlg.obj
 0002:00000f50       ??_C@_1BM@OOGLCDCI@?$PP?Y?$AA?$AN?$AA?$AC?$AA?$AI?$PP?$IO?$AA?$FO?$PP?e?$AA?$CK?$AAQ?$PP?$IE?$AAQ?$PP?$NM?$AA?$CB@ 00413f50     mcf6Dlg.obj
 0002:00000f6c       ??_C@_00CNPNBAHC@@         00413f6c     mcf6Dlg.obj
 0002:00000f70       ??_C@_1BK@CIIHAILN@?$PP?m?$PP?U?$AA?$BJ?$PP?o?$AA?$AM?$PP?$OA?$PP?U?$AA?$BG?$PP?Q?$PP?G?$PP?d?$AAh@ 00413f70     mcf6Dlg.obj
 0002:00000f8c       ??_C@_1BA@KDFHPBAP@?$PP?$LO?$AAn?$PP?G?$PP?d?$AAh?$AA?$BJ?$PP?o@ 00413f8c     mcf6Dlg.obj
 0002:00000f9c       ??_C@_1BE@LFMAOILK@?$AAS?$AAa?$AAv?$AAe?$AAd?$AAD?$AAa?$AAt?$AAa@ 00413f9c     mcf6Dlg.obj
 0002:00000fb0       ??_C@_0O@BCACJEJL@?$CFY?$CFm?$CFd?5?$CFH?$CFM?$CFS@ 00413fb0     mcf6Dlg.obj
 0002:00000fc0       ??_C@_0L@KEJHHEAN@SavedData?2@ 00413fc0     mcf6Dlg.obj
 0002:00000fcc       ??_C@_04JGDMNCGN@?4lix@    00413fcc     mcf6Dlg.obj
 0002:00000fd4       ??_C@_1BA@MOOHDCN@?$PP?$IH?$PP?v?$AA?$BL?$PP?z?$AA?$BJ?$PP?o?$AA?$AB@ 00413fd4     mcf6Dlg.obj
 0002:00000fe4       ??_C@_1BM@PEPEJGFM@?$AA?$BL?$PP?z?$PP?$LP?$AA?$AL?$AA?$BJ?$PP?o?$AA?$AM?$PP?c?$AA?$AB?$AA?3?$AA?$CF?$AAd?$AA?4@ 00413fe4     mcf6Dlg.obj
 0002:00001000       ??_C@_15EGCHAEPE@?$PP?P?$AA?3@ 00414000     mcf6Dlg.obj
 0002:00001008       ??_C@_1O@JNCJJMJ@?$PP?$LP?$AA?$AL?$PP?e?$PP?D?$AA?$BJ?$PP?o@ 00414008     mcf6Dlg.obj
 0002:00001018       ??_C@_1M@ILHOPKA@?$AAE?$AAr?$AAr?$AAo?$AAr@ 00414018     mcf6Dlg.obj
 0002:00001024       ??_C@_1BO@KDFBJAEI@?$AAz?$PP?t?$PP?r?$PP?a?$AA?$AM?$PP?$OA?$PP?U?$PP?$KF?$AA6?$PP?$LA?$PP?$IE?$AAp?$AAn?$AA?$AF@ 00414024     mcf6Dlg.obj
 0002:00001044       ??_C@_1CG@DGCHAFCN@?$AA?$CF?$AAd?$AA?1?$AA?$CF?$AAd?$AA?1?$AA?$CF?$AAd?$AA?5?$AA?5?$AA?$CF?$AAd?$AA?3?$AA?$CF?$AAd@ 00414044     mcf6Dlg.obj
 0002:0000106c       ??_C@_1DM@IMCLLIIF@?$AA?$CF?$AA0?$AA2?$AAX?$AA?9?$AA?$CF?$AA0?$AA2?$AAX?$AA?9?$AA?$CF?$AA0?$AA2?$AAX?$AA?9@ 0041406c     mcf6Dlg.obj
 0002:000010a8       ??_C@_1BI@FCMLLAGN@?$AA?$CF?$AAd?$AA?4?$AA?$CF?$AAd?$AA?4?$AA?$CF?$AAd?$AA?4?$AA?$CF?$AAd@ 004140a8     mcf6Dlg.obj
 0002:000010c0       ??_C@_1M@NDEENECJ@?$AA?$CF?$AA0?$AA2?$AAx?$AA?3@ 004140c0     mcf6Dlg.obj
 0002:000010cc       ??_C@_19NHPFCCLF@?$AA?$CF?$AA0?$AA2?$AAx@ 004140cc     mcf6Dlg.obj
 0002:000010d8       ??_C@_1BI@PJDDMJDK@?$PP?$KF?$AA6?$AA0?$PP?$IE?$AA?0?$AA?$CF?$AAd?$AA?$CK?$AAp?$AAn?$AA?$AF@ 004140d8     mcf6Dlg.obj
 0002:000010f0       ??_C@_1M@FFPOHBEO@?$PP?$PO?$PP?o?$AAB?$AAp?$AAn@ 004140f0     mcf6Dlg.obj
 0002:000010fc       ??_C@_1M@GMNELDAF@?$PP?$JA?$AAM?$AAA?$AAC?$AA?$BK@ 004140fc     mcf6Dlg.obj
 0002:00001108       ??_C@_1M@BOIKLLAP@?$AA?$CF?$AA0?$AA2?$AAx?$AA?9@ 00414108     mcf6Dlg.obj
 0002:00001114       ??_C@_1O@DLFGJLC@?$PP?n?$PP?$IE?$AAM?$AAA?$AAC?$AA?$BK@ 00414114     mcf6Dlg.obj
 0002:00001124       ??_C@_1BE@OAHDGLPE@?$AA?$HL?$PP?$IL?$AA?$BK?$AA0?$AAx?$AA?$CF?$AA0?$AA2?$AAx@ 00414124     mcf6Dlg.obj
 0002:00001138       ??_C@_1O@IACCHKNL@?$AAA?$AAR?$AAP?$AAO?$PP?$KO?$AA4@ 00414138     mcf6Dlg.obj
 0002:00001148       ??_C@_1BA@KHBJNOEB@?$AAl?$PP?v?$AA?$HL?$PP?$IL?$AA?$BK?$AA?$CF?$AAd@ 00414148     mcf6Dlg.obj
 0002:00001158       ??_C@_1BI@JLGMNENO@?$AAO?$PP?$KO?$AA?$HL?$PP?$IL?$AA?$BK?$AA0?$AAx?$AA?$CF?$AA0?$AA2?$AAx@ 00414158     mcf6Dlg.obj
 0002:00001170       ??_C@_1BE@KFIKBOOJ@?$AAl?$PP?v?$AA0?$AA?$EA?$AA?$HP?$PP?$KG?$AA?$BK?$AA?$CF?$AAd@ 00414170     mcf6Dlg.obj
 0002:00001184       ??_C@_1BE@MLHCOPE@?$AAO?$PP?$KO?$AA0?$AA?$EA?$AA?$HP?$PP?$KG?$AA?$BK?$AA?$CF?$AAd@ 00414184     mcf6Dlg.obj
 0002:00001198       ??_C@_1O@NBCODNON@?$PP?M?$AA?2?$AA?$AB?$AA?$BK?$AA?$CF?$AAd@ 00414198     mcf6Dlg.obj
 0002:000011a8       ??_C@_1BA@HBEJAAOD@?$PP?Q?$AA?$AB?$PP?$LJ?$AAM?$AAA?$AAC?$AA?$BK@ 004141a8     mcf6Dlg.obj
 0002:000011b8       ??_C@_1O@DOLGJDIK@?$PP?Q?$AA?$AB?$PP?$LJ?$AAI?$AAP?$AA?$BK@ 004141b8     mcf6Dlg.obj
 0002:000011c8       ??_C@_17PIMDNJOF@?$AA?$CF?$AAd?$AA?4@ 004141c8     mcf6Dlg.obj
 0002:000011d0       ??_C@_1BA@HPBDFKFI@?$PP?$KF?$AA6?$PP?$LJ?$AAM?$AAA?$AAC?$AA?$BK@ 004141d0     mcf6Dlg.obj
 0002:000011e0       ??_C@_1O@FCCJFGFO@?$PP?$KF?$AA6?$PP?$LJ?$AAI?$AAP?$AA?$BK@ 004141e0     mcf6Dlg.obj
 0002:000011f0       ??_C@_1M@ILHAJKAG@?$AAI?$AAP?$AAO?$PP?$KO?$AA4@ 004141f0     mcf6Dlg.obj
 0002:000011fc       ??_C@_1M@OFAAIPJN@?$AAH?$AA?0?$AA?$BK?$AA?$CF?$AAd@ 004141fc     mcf6Dlg.obj
 0002:00001208       ??_C@_1BA@MILOCDKP@?$AAI?$AAP?$AA4?$AA?$HP?$AA?$BK?$AA?$CF?$AAd@ 00414208     mcf6Dlg.obj
 0002:00001218       ??_C@_1BA@EMKBOAPJ@?$AA?$AN?$PP?$KB?$AA?$HL?$PP?$IL?$AA?$BK?$AA?$CF?$AAd@ 00414218     mcf6Dlg.obj
 0002:00001228       ??_C@_1O@LIHJBDNM@?$AA?$DL?$AA?$HP?$PP?$KG?$AA?$BK?$AA?$CF?$AAd@ 00414228     mcf6Dlg.obj
 0002:00001238       ??_C@_1BE@CKAINLHE@?$AA?$AH?$PP?F?$AA?$BK?$AA0?$AAx?$AA?$CF?$AA0?$AA2?$AAx@ 00414238     mcf6Dlg.obj
 0002:0000124c       ??_C@_1O@HJPFECLJ@?$PP?$LF?$AAO?$PP?$PL?$AA?$BK?$AA?$CF?$AAd@ 0041424c     mcf6Dlg.obj
 0002:0000125c       ??_C@_1O@KKJOBCKN@?$AA?$BP?$AAX?$AA?$BP?$AA?$BK?$AA?$CF?$AAd@ 0041425c     mcf6Dlg.obj
 0002:0000126c       ??_C@_1M@OIHIJNMG@?$AAO?$PP?$KO?$AA?$BK?$AA?$CF?$AAd@ 0041426c     mcf6Dlg.obj
 0002:00001278       ??_C@_1BK@CKFFMHAB@?$AA4?$PP?h?$AA?$CB?$PP?$IM?$PP?$IM?$AA?$BK?$AA0?$AAx?$AA?$CF?$AA0?$AA2?$AAx@ 00414278     mcf6Dlg.obj
 0002:00001294       ??_C@_19PCBPBHHB@?$PP?$JA?$AAI?$AAP?$AA?$BK@ 00414294     mcf6Dlg.obj
 0002:000012a0       ??_C@_1M@OECODANF@?$PP?n?$PP?$IE?$AAI?$AAP?$AA?$BK@ 004142a0     mcf6Dlg.obj
 0002:000012ac       ??_C@_1BA@NBMFAGEN@?$AAI?$AAC?$AAM?$AAP?$AAO?$PP?$KO?$AA4@ 004142ac     mcf6Dlg.obj
 0002:000012bc       ??_C@_1M@NKDELJHD@?$AA?$HL?$PP?$IL?$AA?3?$AA?$CF?$AAd@ 004142bc     mcf6Dlg.obj
 0002:000012c8       ??_C@_1M@GMIOGLPG@?$PP?c?$AA?$AB?$AA?3?$AA?$CF?$AAd@ 004142c8     mcf6Dlg.obj
 0002:000012d4       ??_C@_1M@PCNGGOBE@?$PP?$IP?$PP?w?$AA?3?$AA?$CF?$AAd@ 004142d4     mcf6Dlg.obj
 0002:000012e0       ??_C@_1O@FAAFNPIF@?$AA?$CB?$PP?$IM?$PP?$IM?$AA?3?$AA?$CF?$AAd@ 004142e0     mcf6Dlg.obj
 0002:000012f0       ??_C@_1O@PFIOIJEJ@?$AAT?$AAC?$AAP?$AAO?$PP?$KO?$AA4@ 004142f0     mcf6Dlg.obj
 0002:00001300       ??_C@_1BC@IFOHBANE@?$AA?5?$AA?5?$PP?$JA?$PP?o?$PP?c?$AA?3?$AA?$CF?$AAd@ 00414300     mcf6Dlg.obj
 0002:00001314       ??_C@_1BE@BAGIDBCE@?$AA?5?$AA?5?$PP?n?$PP?$IE?$PP?o?$PP?c?$AA?3?$AA?$CF?$AAd@ 00414314     mcf6Dlg.obj
 0002:00001328       ??_C@_1BK@CNMKPPKM@?$AA?5?$AA?5?$PP?$IP?$AA?$BH?$PP?w?$AA?3?$AA0?$AAx?$AA?$CF?$AA0?$AA2?$AAx@ 00414328     mcf6Dlg.obj
 0002:00001344       ??_C@_1BC@BEHLOKDE@?$AA?5?$AA?5?$AAn?$PP?$KE?$PP?w?$AA?3?$AA?$CF?$AAd@ 00414344     mcf6Dlg.obj
 0002:00001358       ??_C@_1BE@FFKIJDMF@?$AA?5?$AA?5?$AA4?$PP?h?$AA?$HP?$PP?$KG?$AA?3?$AA?$CF?$AAd@ 00414358     mcf6Dlg.obj
 0002:0000136c       ??_C@_1M@DOPKCPEE@?$AA?5?$AA?$CL?$AA?$AH?$PP?W?$AAM@ 0041436c     mcf6Dlg.obj
 0002:00001378       ??_C@_1O@GGMFIHJD@?$AAc?$AAw?$AAr?$AA?5?$AA?$CF?$AAd@ 00414378     mcf6Dlg.obj
 0002:00001388       ??_C@_1O@FEGLIADH@?$AAe?$AAc?$AAe?$AA?5?$AA?$CF?$AAd@ 00414388     mcf6Dlg.obj
 0002:00001398       ??_C@_1O@KBJBMNPF@?$AAu?$AAr?$AAg?$AA?5?$AA?$CF?$AAd@ 00414398     mcf6Dlg.obj
 0002:000013a8       ??_C@_1O@FDAODPJP@?$AAa?$AAc?$AAk?$AA?5?$AA?$CF?$AAd@ 004143a8     mcf6Dlg.obj
 0002:000013b8       ??_C@_1O@EPJMLEHK@?$AAp?$AAs?$AAh?$AA?5?$AA?$CF?$AAd@ 004143b8     mcf6Dlg.obj
 0002:000013c8       ??_C@_1O@JDGABBLB@?$AAr?$AAs?$AAt?$AA?5?$AA?$CF?$AAd@ 004143c8     mcf6Dlg.obj
 0002:000013d8       ??_C@_1O@NENEAJIH@?$AAs?$AAy?$AAn?$AA?5?$AA?$CF?$AAd@ 004143d8     mcf6Dlg.obj
 0002:000013e8       ??_C@_1O@DKNNLGHK@?$AAf?$AAi?$AAn?$AA?5?$AA?$CF?$AAd@ 004143e8     mcf6Dlg.obj
 0002:000013f8       ??_C@_1BE@MIBNJDBP@?$AA?5?$AA?5?$AA?8?$AA?$CF?$AA?$AH?$PP?$II?$AA?3?$AA?$CF?$AAd@ 004143f8     mcf6Dlg.obj
 0002:0000140c       ??_C@_1BK@HIMLKADD@?$AA?5?$AA?5?$AA?$CB?$PP?$IM?$PP?$IM?$AA?3?$AA0?$AAx?$AA?$CF?$AA0?$AA2?$AAx@ 0041440c     mcf6Dlg.obj
 0002:00001428       ??_C@_1BA@BJIIJNK@?$AA?5?$AA?5?$AA?7?$AAy?$AA?3?$AA?$CF?$AAd@ 00414428     mcf6Dlg.obj
 0002:00001438       ??_C@_1O@BMBJIBLA@?$AAU?$AAD?$AAP?$AAO?$PP?$KO?$AA4@ 00414438     mcf6Dlg.obj
 0002:00001448       ??_C@_1O@HJDOGFBD@?$PP?$JA?$PP?o?$PP?c?$AA?3?$AA?$CF?$AAd@ 00414448     mcf6Dlg.obj
 0002:00001458       ??_C@_1BA@LELMAJMH@?$PP?n?$PP?$IE?$PP?o?$PP?c?$AA?3?$AA?$CF?$AAd@ 00414458     mcf6Dlg.obj
 0002:00001468       ??_C@_1O@NDDJDLLK@?$AA?$DL?$AA?$HP?$PP?$KG?$AA?3?$AA?$CF?$AAd@ 00414468     mcf6Dlg.obj
 0002:00001478       ??_C@_1BG@OANOBCK@?$AA?$CB?$PP?$IM?$PP?$IM?$AA?3?$AA0?$AAx?$AA?$CF?$AA0?$AA2?$AAx@ 00414478     mcf6Dlg.obj
 0002:00001490       ??_C@_1BA@HCFEPJMH@?$AAI?$AAP?$AAv?$AA6?$AAO?$PP?$KO?$AA4@ 00414490     mcf6Dlg.obj
 0002:000014a0       ??_C@_1M@IOEAKHPL@?$AAH?$AA?0?$AA?3?$AA?$CF?$AAd@ 004144a0     mcf6Dlg.obj
 0002:000014ac       ??_C@_1O@OFDDKKHM@?$AAA?$AA?$HL?$PP?$IL?$AA?3?$AA?$CF?$AAd@ 004144ac     mcf6Dlg.obj
 0002:000014bc       ??_C@_1O@EIPMOHCK@?$AAA?$AA?$AH?$AA?$HO?$AA?3?$AA?$CF?$AAd@ 004144bc     mcf6Dlg.obj
 0002:000014cc       ??_C@_1BE@EKPCHHKA@?$AA?7?$AAH?$AA?$HN?$AAw?$AA?$HP?$PP?$KG?$AA?3?$AA?$CF?$AAd@ 004144cc     mcf6Dlg.obj
 0002:000014e0       ??_C@_1BK@DHBINCFB@?$AA?$AL?$AA?$AA?$AA?$CK?$PP?$JG?$PP?h?$AA?3?$AA0?$AAx?$AA?$CF?$AA0?$AA2?$AAx@ 004144e0     mcf6Dlg.obj
 0002:000014fc       ??_C@_1O@BPMHPLNN@?$PP?s?$AAP?$AA6?$AA?3?$AA?$CF?$AAd@ 004144fc     mcf6Dlg.obj
 0002:0000150c       ??_C@_19DADNMAGA@?$PP?$JA?$AA0?$AA?$EA?$AA?3@ 0041450c     mcf6Dlg.obj
 0002:00001518       ??_C@_1M@CGAMOHME@?$PP?n?$PP?$IE?$AA0?$AA?$EA?$AA?3@ 00414518     mcf6Dlg.obj
 0002:00001524       ??_C@_1BE@NIEEIFHI@?$AAI?$AAC?$AAM?$AAP?$AAv?$AA6?$AAO?$PP?$KO?$AA4@ 00414524     mcf6Dlg.obj
 0002:00001538       ??_C@_1BC@COMLOMBO@?$AA?7?$AAy?$AA?9?$AA?$HL?$PP?$IL?$AA?3?$AA?$CF?$AAd@ 00414538     mcf6Dlg.obj
 0002:0000154c       ??_C@_1BA@DDLOECGH@?$AA?7?$AAy?$AA?9?$AA?$HP?$PP?$KG?$AA?$CF?$AAd@ 0041454c     mcf6Dlg.obj
 0002:0000155c       ??_C@_1BE@GCFKCGOC@?$AA?7?$AAy?$AA?9?$PP?$PO?$PP?o?$AAB?$AA0?$AA?$EA?$AA?3@ 0041455c     mcf6Dlg.obj
 0002:00001570       ??_C@_17IPIBBFJN@?$AA?$AH?$PP?W?$AAM@ 00414570     mcf6Dlg.obj
 0002:00001578       ??_C@_1BG@HHBDCADN@?$PP?$NN?$AAX?$PP?$IH?$PP?v?$AAG?$AA0?$AA?$CK?$PP?e?$AA?$AP?$AA?$BG@ 00414578     mcf6Dlg.obj
 0002:00001590       ??_C@_1O@JBJJLFMP@?$AAS?$AA?$AA?$PP?$IH?$PP?v?$AA?$BJ?$PP?o@ 00414590     mcf6Dlg.obj
 0002:000015a0       ?szInvalidDateTime@ATL@@3QB_WB 004145a0     stdafx.obj
 0002:000015a4       ??_C@_1CC@FFBCNGIJ@?$AAI?$AAn?$AAv?$AAa?$AAl?$AAi?$AAd?$AA?5?$AAD?$AAa?$AAt?$AAe?$AAT?$AAi?$AAm@ 004145a4     stdafx.obj
 0002:000015c8       ?szInvalidDateTimeSpan@ATL@@3QB_WB 004145c8     stdafx.obj
 0002:000015cc       ??_C@_1CK@NMKILLLB@?$AAI?$AAn?$AAv?$AAa?$AAl?$AAi?$AAd?$AA?5?$AAD?$AAa?$AAt?$AAe?$AAT?$AAi?$AAm@ 004145cc     stdafx.obj
 0002:000015f8       _CLSID_Registrar           004145f8     stdafx.obj
 0002:00001608       _IID_IRegistrar            00414608     stdafx.obj
 0002:00001618       _IID_IDocHostUIHandlerDispatch 00414618     stdafx.obj
 0002:00001628       _IID_IAxWinHostWindow      00414628     stdafx.obj
 0002:00001638       _IID_IAxWinHostWindowLic   00414638     stdafx.obj
 0002:00001648       _IID_IAxWinAmbientDispatch 00414648     stdafx.obj
 0002:00001658       _IID_IAxWinAmbientDispatchEx 00414658     stdafx.obj
 0002:00001668       _IID_IInternalConnection   00414668     stdafx.obj
 0002:00001678       _LIBID_ATLLib              00414678     stdafx.obj
 0002:00001688       ?chDirSep@ATL@@3_WB        00414688     stdafx.obj
 0002:0000168c       ?chRightBracket@ATL@@3_WB  0041468c     stdafx.obj
 0002:00001690       ?chLeftBracket@ATL@@3_WB   00414690     stdafx.obj
 0002:00001694       ?chQuote@ATL@@3_WB         00414694     stdafx.obj
 0002:00001698       ?chEquals@ATL@@3_WB        00414698     stdafx.obj
 0002:0000169c       ?szStringVal@ATL@@3QB_WB   0041469c     stdafx.obj
 0002:000016a0       ??_C@_13HADIAKP@?$AAS@     004146a0     stdafx.obj
 0002:000016a4       ?multiszStringVal@ATL@@3QB_WB 004146a4     stdafx.obj
 0002:000016a8       ??_C@_13LHMFKAAD@?$AAM@    004146a8     stdafx.obj
 0002:000016ac       ?szDwordVal@ATL@@3QB_WB    004146ac     stdafx.obj
 0002:000016b0       ??_C@_13MKMNOPIJ@?$AAD@    004146b0     stdafx.obj
 0002:000016b4       ?szBinaryVal@ATL@@3QB_WB   004146b4     stdafx.obj
 0002:000016b8       ??_C@_13OPKGLAFF@?$AAB@    004146b8     stdafx.obj
 0002:000016bc       ?szValToken@ATL@@3QB_WB    004146bc     stdafx.obj
 0002:000016c0       ??_C@_17LLMMEOJD@?$AAV?$AAa?$AAl@ 004146c0     stdafx.obj
 0002:000016c8       ?szForceRemove@ATL@@3QB_WB 004146c8     stdafx.obj
 0002:000016cc       ??_C@_1BI@JFAIJMHL@?$AAF?$AAo?$AAr?$AAc?$AAe?$AAR?$AAe?$AAm?$AAo?$AAv?$AAe@ 004146cc     stdafx.obj
 0002:000016e4       ?szNoRemove@ATL@@3QB_WB    004146e4     stdafx.obj
 0002:000016e8       ??_C@_1BC@GCKHIPE@?$AAN?$AAo?$AAR?$AAe?$AAm?$AAo?$AAv?$AAe@ 004146e8     stdafx.obj
 0002:000016fc       ?szDelete@ATL@@3QB_WB      004146fc     stdafx.obj
 0002:00001700       ??_C@_1O@JDLOHAN@?$AAD?$AAe?$AAl?$AAe?$AAt?$AAe@ 00414700     stdafx.obj
 0002:00001710       _c_DwmMaxQueuedBuffers     00414710     stdafx.obj
 0002:00001714       _c_DwmMaxMonitors          00414714     stdafx.obj
 0002:00001718       _c_DwmMaxAdapters          00414718     stdafx.obj
 0002:0000171c       ?CLSID_WinFormsControl@@3U_GUID@@B 0041471c     stdafx.obj
 0002:0000172c       ??_C@_13COJANIEC@?$AA0@    0041472c     stdafx.obj
 0002:00001730       ??_C@_1OE@OGGJFKAL@?$AAC?$AA?3?$AA?2?$AAP?$AAr?$AAo?$AAg?$AAr?$AAa?$AAm?$AA?5?$AAF?$AAi?$AAl?$AAe@ 00414730     stdafx.obj
 0002:00001814       ??_C@_1CA@ONGMEOAB@?$AAa?$AAt?$AAl?$AAT?$AAr?$AAa?$AAc?$AAe?$AAG?$AAe?$AAn?$AAe?$AAr?$AAa?$AAl@ 00414814     stdafx.obj
 0002:00001834       ??_C@_1BI@MAFGHOEE@?$AAa?$AAt?$AAl?$AAT?$AAr?$AAa?$AAc?$AAe?$AAC?$AAO?$AAM@ 00414834     stdafx.obj
 0002:0000184c       ??_C@_1BG@FPLJJEMF@?$AAa?$AAt?$AAl?$AAT?$AAr?$AAa?$AAc?$AAe?$AAQ?$AAI@ 0041484c     stdafx.obj
 0002:00001864       ??_C@_1CE@NIAEAIDK@?$AAa?$AAt?$AAl?$AAT?$AAr?$AAa?$AAc?$AAe?$AAR?$AAe?$AAg?$AAi?$AAs?$AAt?$AAr@ 00414864     stdafx.obj
 0002:00001888       ??_C@_1CC@BNHGJFNK@?$AAa?$AAt?$AAl?$AAT?$AAr?$AAa?$AAc?$AAe?$AAR?$AAe?$AAf?$AAc?$AAo?$AAu?$AAn@ 00414888     stdafx.obj
 0002:000018ac       ??_C@_1CE@NAJDPMNB@?$AAa?$AAt?$AAl?$AAT?$AAr?$AAa?$AAc?$AAe?$AAW?$AAi?$AAn?$AAd?$AAo?$AAw?$AAi@ 004148ac     stdafx.obj
 0002:000018d0       ??_C@_1CC@IMNJGBED@?$AAa?$AAt?$AAl?$AAT?$AAr?$AAa?$AAc?$AAe?$AAC?$AAo?$AAn?$AAt?$AAr?$AAo?$AAl@ 004148d0     stdafx.obj
 0002:000018f4       ??_C@_1CA@OMOMONMN@?$AAa?$AAt?$AAl?$AAT?$AAr?$AAa?$AAc?$AAe?$AAH?$AAo?$AAs?$AAt?$AAi?$AAn?$AAg@ 004148f4     stdafx.obj
 0002:00001914       ??_C@_1CC@JNJJDOOH@?$AAa?$AAt?$AAl?$AAT?$AAr?$AAa?$AAc?$AAe?$AAD?$AAB?$AAC?$AAl?$AAi?$AAe?$AAn@ 00414914     stdafx.obj
 0002:00001938       ??_C@_1CG@MNMMIOOI@?$AAa?$AAt?$AAl?$AAT?$AAr?$AAa?$AAc?$AAe?$AAD?$AAB?$AAP?$AAr?$AAo?$AAv?$AAi@ 00414938     stdafx.obj
 0002:00001960       ??_C@_1BO@EFPHNHHN@?$AAa?$AAt?$AAl?$AAT?$AAr?$AAa?$AAc?$AAe?$AAS?$AAn?$AAa?$AAp?$AAi?$AAn@ 00414960     stdafx.obj
 0002:00001980       ??_C@_1CA@DMHPIODO@?$AAa?$AAt?$AAl?$AAT?$AAr?$AAa?$AAc?$AAe?$AAN?$AAo?$AAt?$AAI?$AAm?$AAp?$AAl@ 00414980     stdafx.obj
 0002:000019a0       ??_C@_1CG@KFEEMCDH@?$AAa?$AAt?$AAl?$AAT?$AAr?$AAa?$AAc?$AAe?$AAA?$AAl?$AAl?$AAo?$AAc?$AAa?$AAt@ 004149a0     stdafx.obj
 0002:000019c8       ??_C@_1BK@NCJHOFCL@?$AAa?$AAt?$AAl?$AAT?$AAr?$AAa?$AAc?$AAe?$AAT?$AAi?$AAm?$AAe@ 004149c8     stdafx.obj
 0002:000019e4       ??_C@_1BM@GIKLHLFD@?$AAa?$AAt?$AAl?$AAT?$AAr?$AAa?$AAc?$AAe?$AAC?$AAa?$AAc?$AAh?$AAe@ 004149e4     stdafx.obj
 0002:00001a00       ??_C@_1CA@PBPHANCD@?$AAa?$AAt?$AAl?$AAT?$AAr?$AAa?$AAc?$AAe?$AAS?$AAt?$AAe?$AAn?$AAc?$AAi?$AAl@ 00414a00     stdafx.obj
 0002:00001a20       ??_C@_1BI@OKDLCIEM@?$AAa?$AAt?$AAl?$AAT?$AAr?$AAa?$AAc?$AAe?$AAM?$AAa?$AAp@ 00414a20     stdafx.obj
 0002:00001a38       ??_C@_1BK@DMHCKHHD@?$AAa?$AAt?$AAl?$AAT?$AAr?$AAa?$AAc?$AAe?$AAU?$AAt?$AAi?$AAl@ 00414a38     stdafx.obj
 0002:00001a54       ??_C@_1CC@DMMBNCFG@?$AAa?$AAt?$AAl?$AAT?$AAr?$AAa?$AAc?$AAe?$AAS?$AAe?$AAc?$AAu?$AAr?$AAi?$AAt@ 00414a54     stdafx.obj
 0002:00001a78       ??_C@_1BK@OPAPOCAL@?$AAa?$AAt?$AAl?$AAT?$AAr?$AAa?$AAc?$AAe?$AAS?$AAy?$AAn?$AAc@ 00414a78     stdafx.obj
 0002:00001a94       ??_C@_1BM@FHAEDBFK@?$AAa?$AAt?$AAl?$AAT?$AAr?$AAa?$AAc?$AAe?$AAI?$AAS?$AAA?$AAP?$AAI@ 00414a94     stdafx.obj
 0002:00001ab0       ??_C@_1O@LFNDFEBP@?$AA?$CF?$AAl?$AAs?$AA?5?$AA?9?$AA?5@ 00414ab0     stdafx.obj
 0002:00001ac0       ??_C@_1M@PGKOAACE@?$AA?$CF?$AAu?$AA?5?$AA?9?$AA?5@ 00414ac0     stdafx.obj
 0002:00001acc       ??_C@_1O@OAIPCDPO@?$AA?$CF?$AAl?$AAs?$AA?$CF?$AAl?$AAs@ 00414acc     stdafx.obj
 0002:00001adc       ??_C@_17LGGGMOOB@?$AA?$CF?$AAh?$AAs@ 00414adc     stdafx.obj
 0002:00001ae4       ??_C@_1BM@GBBOFEAE@?$AA_?$AA_?$AAa?$AAt?$AAl?$AA_?$AAc?$AAo?$AAn?$AAd?$AAV?$AAa?$AAl@ 00414ae4     stdafx.obj
 0002:00001b04       ??_7CWin32Heap@ATL@@6B@    00414b04     stdafx.obj
 0002:00001b18       ??_C@_1BG@CLPBKBHG@?$AAh?$AAH?$AAe?$AAa?$AAp?$AA?5?$AA?$CB?$AA?$DN?$AA?5?$AA0@ 00414b18     stdafx.obj
 0002:00001b30       ??_C@_1OA@EHMPCEAA@?$AAC?$AA?3?$AA?2?$AAP?$AAr?$AAo?$AAg?$AAr?$AAa?$AAm?$AA?5?$AAF?$AAi?$AAl?$AAe@ 00414b30     stdafx.obj
 0002:00001c10       ??_C@_1BC@PMINONJG@?$AAb?$AAS?$AAu?$AAc?$AAc?$AAe?$AAs?$AAs@ 00414c10     stdafx.obj
 0002:00001c24       ??_C@_1BE@BLGCOAPB@?$AAn?$AAR?$AAe?$AAf?$AAs?$AA?5?$AA?$DO?$AA?5?$AA0@ 00414c24     stdafx.obj
 0002:00001c38       ??_C@_1OI@JHKBHDLF@?$AAC?$AA?3?$AA?2?$AAP?$AAr?$AAo?$AAg?$AAr?$AAa?$AAm?$AA?5?$AAF?$AAi?$AAl?$AAe@ 00414c38     stdafx.obj
 0002:00001d20       ??_C@_1CA@MEFFJNJ@?$AAp?$AAS?$AAt?$AAr?$AAi?$AAn?$AAg?$AAM?$AAg?$AAr?$AA?5?$AA?$DN?$AA?$DN?$AA?5?$AA0@ 00414d20     stdafx.obj
 0002:00001d40       ??_C@_1OC@DJCHFOK@?$AAC?$AA?3?$AA?2?$AAP?$AAr?$AAo?$AAg?$AAr?$AAa?$AAm?$AA?5?$AAF?$AAi?$AAl?$AAe@ 00414d40     stdafx.obj
 0002:00001e28       ??_C@_0HB@POOMPKCJ@C?3?2Program?5Files?5?$CIx86?$CJ?2Microsof@ 00414e28     stdafx.obj
 0002:00001ea0       ??_C@_1IA@KEEOONGN@?$AAE?$AAR?$AAR?$AAO?$AAR?$AA?5?$AA?3?$AA?5?$AAU?$AAn?$AAa?$AAb?$AAl?$AAe?$AA?5@ 00414ea0     stdafx.obj
 0002:00001f20       ??_C@_1IG@OPJAFKJH@?$AAE?$AAR?$AAR?$AAO?$AAR?$AA?5?$AA?3?$AA?5?$AAU?$AAn?$AAa?$AAb?$AAl?$AAe?$AA?5@ 00414f20     stdafx.obj
 0002:00001fac       ??_7CAtlStringMgr@ATL@@6B@ 00414fac     stdafx.obj
 0002:00001fc8       ??_C@_1OA@MPBBNDLD@?$AAC?$AA?3?$AA?2?$AAP?$AAr?$AAo?$AAg?$AAr?$AAa?$AAm?$AA?5?$AAF?$AAi?$AAl?$AAe@ 00414fc8     stdafx.obj
 0002:000020a8       ??_C@_1BG@IEBIBJEI@?$AAp?$AAD?$AAa?$AAt?$AAa?$AA?5?$AA?$CB?$AA?$DN?$AA?5?$AA0@ 004150a8     stdafx.obj
 0002:000020c0       ??_C@_1DE@KEEBDKDC@?$AAp?$AAD?$AAa?$AAt?$AAa?$AA?9?$AA?$DO?$AAp?$AAS?$AAt?$AAr?$AAi?$AAn?$AAg?$AAM@ 004150c0     stdafx.obj
 0002:000020f8       ??_C@_1EA@JHMKKLFC@?$AAn?$AAI?$AAn?$AAd?$AAe?$AAx?$AA?5?$AA?$DO?$AA?$DN?$AA?5?$AA0?$AA?5?$AA?$CG?$AA?$CG?$AA?5@ 004150f8     stdafx.obj
 0002:00002138       ??_C@_1OK@DOMKNKBC@?$AAC?$AA?3?$AA?2?$AAP?$AAr?$AAo?$AAg?$AAr?$AAa?$AAm?$AA?5?$AAF?$AAi?$AAl?$AAe@ 00415138     stdafx.obj
 0002:00002224       ??_C@_1BK@NHECDDNK@?$AAm?$AA_?$AAp?$AAD?$AAa?$AAt?$AAa?$AA?5?$AA?$DN?$AA?$DN?$AA?5?$AA0@ 00415224     stdafx.obj
 0002:00002240       ??_C@_1BA@JENGHLNP@?$AA?$CF?$AA0?$AA4?$AAx?$AA?3?$AA?5?$AA?5@ 00415240     utilities.obj
 0002:00002250       ??_C@_1O@MHIHNEKB@?$AA?$CF?$AA0?$AA2?$AAx?$AA?5?$AA?5@ 00415250     utilities.obj
 0002:00002260       ??_C@_19NMAFMAH@?$AA?5?$AA?5?$AA?5?$AA?5@ 00415260     utilities.obj
 0002:0000226c       ??_C@_15DAMPJCDE@?$AA?$CF?$AAc@ 0041526c     utilities.obj
 0002:00002274       ??_C@_15JNBOKNOG@?$AA?$AN?$AA?6@ 00415274     utilities.obj
 0002:00002280       __pAtlLcidToLocaleNameTable 00415280     mfcs140ud:nolib.obj
 0002:000029a0       ??_C@_15EMKDOKLE@?$AAa?$AAr@ 004159a0     mfcs140ud:nolib.obj
 0002:000029a8       ??_C@_15KNPADPLH@?$AAb?$AAg@ 004159a8     mfcs140ud:nolib.obj
 0002:000029b0       ??_C@_15EDMHLDMO@?$AAc?$AAa@ 004159b0     mfcs140ud:nolib.obj
 0002:000029b8       ??_C@_1O@BPEAJADD@?$AAz?$AAh?$AA?9?$AAC?$AAH?$AAS@ 004159b8     mfcs140ud:nolib.obj
 0002:000029c8       ??_C@_15LJNHCMNK@?$AAc?$AAs@ 004159c8     mfcs140ud:nolib.obj
 0002:000029d0       ??_C@_15FOMCIDHG@?$AAd?$AAa@ 004159d0     mfcs140ud:nolib.obj
 0002:000029d8       ??_C@_15NBKABECB@?$AAd?$AAe@ 004159d8     mfcs140ud:nolib.obj
 0002:000029e0       ??_C@_15GHPEIIAO@?$AAe?$AAl@ 004159e0     mfcs140ud:nolib.obj
 0002:000029e8       ??_C@_15MNPNEAIF@?$AAe?$AAn@ 004159e8     mfcs140ud:nolib.obj
 0002:000029f0       ??_C@_15GPIOMPMH@?$AAe?$AAs@ 004159f0     mfcs140ud:nolib.obj
 0002:000029f8       ??_C@_15NGLOAKJC@?$AAf?$AAi@ 004159f8     mfcs140ud:nolib.obj
 0002:00002a00       ??_C@_15FBKGNKAM@?$AAf?$AAr@ 00415a00     mfcs140ud:nolib.obj
 0002:00002a08       ??_C@_15KGGCNEFK@?$AAh?$AAe@ 00415a08     mfcs140ud:nolib.obj
 0002:00002a10       ??_C@_15PGHLIDMF@?$AAh?$AAu@ 00415a10     mfcs140ud:nolib.obj
 0002:00002a18       ??_C@_15BIEMAPLM@?$AAi?$AAs@ 00415a18     mfcs140ud:nolib.obj
 0002:00002a20       ??_C@_15IFJLDHAF@?$AAi?$AAt@ 00415a20     mfcs140ud:nolib.obj
 0002:00002a28       ??_C@_15GEMIOCAG@?$AAj?$AAa@ 00415a28     mfcs140ud:nolib.obj
 0002:00002a30       ??_C@_15EPELEGJA@?$AAk?$AAo@ 00415a30     mfcs140ud:nolib.obj
 0002:00002a38       ??_C@_15NDDHIMN@?$AAn?$AAl@ 00415a38     mfcs140ud:nolib.obj
 0002:00002a40       ??_C@_15BPIGNHCD@?$AAn?$AAo@ 00415a40     mfcs140ud:nolib.obj
 0002:00002a48       ??_C@_15DEOPBLCG@?$AAp?$AAl@ 00415a48     mfcs140ud:nolib.obj
 0002:00002a50       ??_C@_15KBECGEFG@?$AAp?$AAt@ 00415a50     mfcs140ud:nolib.obj
 0002:00002a58       ??_C@_15GLJCBFMD@?$AAr?$AAo@ 00415a58     mfcs140ud:nolib.obj
 0002:00002a60       ??_C@_15FEDGKCDI@?$AAr?$AAu@ 00415a60     mfcs140ud:nolib.obj
 0002:00002a68       ??_C@_15GLKMLLHM@?$AAh?$AAr@ 00415a68     mfcs140ud:nolib.obj
 0002:00002a70       ??_C@_15CPKMFBDB@?$AAs?$AAk@ 00415a70     mfcs140ud:nolib.obj
 0002:00002a78       ??_C@_15BAAIOGMK@?$AAs?$AAq@ 00415a78     mfcs140ud:nolib.obj
 0002:00002a80       ??_C@_15INNPNOHD@?$AAs?$AAv@ 00415a80     mfcs140ud:nolib.obj
 0002:00002a88       ??_C@_15CABMMOGH@?$AAt?$AAh@ 00415a88     mfcs140ud:nolib.obj
 0002:00002a90       ??_C@_15BPLIHJJM@?$AAt?$AAr@ 00415a90     mfcs140ud:nolib.obj
 0002:00002a98       ??_C@_15NEOEKKDJ@?$AAu?$AAr@ 00415a98     mfcs140ud:nolib.obj
 0002:00002aa0       ??_C@_15NFICGAJK@?$AAi?$AAd@ 00415aa0     mfcs140ud:nolib.obj
 0002:00002aa8       ??_C@_15PJPFLCCM@?$AAu?$AAk@ 00415aa8     mfcs140ud:nolib.obj
 0002:00002ab0       ??_C@_15HPJPHDM@?$AAb?$AAe@ 00415ab0     mfcs140ud:nolib.obj
 0002:00002ab8       ??_C@_15LCHLGJII@?$AAs?$AAl@ 00415ab8     mfcs140ud:nolib.obj
 0002:00002ac0       ??_C@_15PCFJPHHO@?$AAe?$AAt@ 00415ac0     mfcs140ud:nolib.obj
 0002:00002ac8       ??_C@_15HPFPGODN@?$AAl?$AAv@ 00415ac8     mfcs140ud:nolib.obj
 0002:00002ad0       ??_C@_15NFFGKGLG@?$AAl?$AAt@ 00415ad0     mfcs140ud:nolib.obj
 0002:00002ad8       ??_C@_15BDAKCCHN@?$AAf?$AAa@ 00415ad8     mfcs140ud:nolib.obj
 0002:00002ae0       ??_C@_15NFGIAIAJ@?$AAv?$AAi@ 00415ae0     mfcs140ud:nolib.obj
 0002:00002ae8       ??_C@_15LMKNDMHN@?$AAh?$AAy@ 00415ae8     mfcs140ud:nolib.obj
 0002:00002af0       ??_C@_15IJBHMCFL@?$AAa?$AAz@ 00415af0     mfcs140ud:nolib.obj
 0002:00002af8       ??_C@_15EKOFJABL@?$AAe?$AAu@ 00415af8     mfcs140ud:nolib.obj
 0002:00002b00       ??_C@_15BGHADCNK@?$AAm?$AAk@ 00415b00     mfcs140ud:nolib.obj
 0002:00002b08       ??_C@_15JDNICKHM@?$AAa?$AAf@ 00415b08     mfcs140ud:nolib.obj
 0002:00002b10       ??_C@_15KPJEDBKD@?$AAk?$AAa@ 00415b10     mfcs140ud:nolib.obj
 0002:00002b18       ??_C@_15PDNFFFEO@?$AAf?$AAo@ 00415b18     mfcs140ud:nolib.obj
 0002:00002b20       ??_C@_15OMLEGLOC@?$AAh?$AAi@ 00415b20     mfcs140ud:nolib.obj
 0002:00002b28       ??_C@_15IDNNENKK@?$AAm?$AAs@ 00415b28     mfcs140ud:nolib.obj
 0002:00002b30       ??_C@_15MACJNBMH@?$AAk?$AAk@ 00415b30     mfcs140ud:nolib.obj
 0002:00002b38       ??_C@_15DKDJEOND@?$AAk?$AAy@ 00415b38     mfcs140ud:nolib.obj
 0002:00002b40       ??_C@_15DFGDLJBG@?$AAs?$AAw@ 00415b40     mfcs140ud:nolib.obj
 0002:00002b48       ??_C@_15BBFAICNG@?$AAu?$AAz@ 00415b48     mfcs140ud:nolib.obj
 0002:00002b50       ??_C@_15DKNDCGEA@?$AAt?$AAt@ 00415b50     mfcs140ud:nolib.obj
 0002:00002b58       ??_C@_15MGIFMDPL@?$AAp?$AAa@ 00415b58     mfcs140ud:nolib.obj
 0002:00002b60       ??_C@_15HCNDBBA@?$AAg?$AAu@ 00415b60     mfcs140ud:nolib.obj
 0002:00002b68       ??_C@_15FNBEIBON@?$AAt?$AAa@ 00415b68     mfcs140ud:nolib.obj
 0002:00002b70       ??_C@_15NCHGBGLK@?$AAt?$AAe@ 00415b70     mfcs140ud:nolib.obj
 0002:00002b78       ??_C@_15PHPHCBPF@?$AAk?$AAn@ 00415b78     mfcs140ud:nolib.obj
 0002:00002b80       ??_C@_15DLGBCKMP@?$AAm?$AAr@ 00415b80     mfcs140ud:nolib.obj
 0002:00002b88       ??_C@_15EABBLBFF@?$AAs?$AAa@ 00415b88     mfcs140ud:nolib.obj
 0002:00002b90       ??_C@_15CBKOMCOI@?$AAm?$AAn@ 00415b90     mfcs140ud:nolib.obj
 0002:00002b98       ??_C@_15CKDMCJAF@?$AAg?$AAl@ 00415b98     mfcs140ud:nolib.obj
 0002:00002ba0       ??_C@_17CNJFBPG@?$AAk?$AAo?$AAk@ 00415ba0     mfcs140ud:nolib.obj
 0002:00002ba8       ??_C@_17FFBJICPL@?$AAs?$AAy?$AAr@ 00415ba8     mfcs140ud:nolib.obj
 0002:00002bb0       ??_C@_17KPNDCPAF@?$AAd?$AAi?$AAv@ 00415bb0     mfcs140ud:nolib.obj
 0002:00002bb8       ??_C@_1M@OKAHONE@?$AAa?$AAr?$AA?9?$AAS?$AAA@ 00415bb8     mfcs140ud:nolib.obj
 0002:00002bc4       ??_C@_1M@FFFIGIGK@?$AAb?$AAg?$AA?9?$AAB?$AAG@ 00415bc4     mfcs140ud:nolib.obj
 0002:00002bd0       ??_C@_1M@BJNKEDC@?$AAc?$AAa?$AA?9?$AAE?$AAS@ 00415bd0     mfcs140ud:nolib.obj
 0002:00002bdc       ??_C@_1M@CLNBBOPM@?$AAz?$AAh?$AA?9?$AAT?$AAW@ 00415bdc     mfcs140ud:nolib.obj
 0002:00002be8       ??_C@_1M@IJJHFJHA@?$AAc?$AAs?$AA?9?$AAC?$AAZ@ 00415be8     mfcs140ud:nolib.obj
 0002:00002bf4       ??_C@_1M@CLPEOBGI@?$AAd?$AAa?$AA?9?$AAD?$AAK@ 00415bf4     mfcs140ud:nolib.obj
 0002:00002c00       ??_C@_1M@MCMADGCB@?$AAd?$AAe?$AA?9?$AAD?$AAE@ 00415c00     mfcs140ud:nolib.obj
 0002:00002c0c       ??_C@_1M@OOCKEMAM@?$AAe?$AAl?$AA?9?$AAG?$AAR@ 00415c0c     mfcs140ud:nolib.obj
 0002:00002c18       ??_C@_1M@BMHNFIME@?$AAe?$AAn?$AA?9?$AAU?$AAS@ 00415c18     mfcs140ud:nolib.obj
 0002:00002c24       ??_C@_1M@DDNJFGID@?$AAf?$AAi?$AA?9?$AAF?$AAI@ 00415c24     mfcs140ud:nolib.obj
 0002:00002c30       ??_C@_1M@GLIPPMAC@?$AAf?$AAr?$AA?9?$AAF?$AAR@ 00415c30     mfcs140ud:nolib.obj
 0002:00002c3c       ??_C@_1M@GFMCHPE@?$AAh?$AAe?$AA?9?$AAI?$AAL@ 00415c3c     mfcs140ud:nolib.obj
 0002:00002c48       ??_C@_1M@MHLPGNKM@?$AAh?$AAu?$AA?9?$AAH?$AAU@ 00415c48     mfcs140ud:nolib.obj
 0002:00002c54       ??_C@_1M@LPDDNNPN@?$AAi?$AAs?$AA?9?$AAI?$AAS@ 00415c54     mfcs140ud:nolib.obj
 0002:00002c60       ??_C@_1M@MADIPODN@?$AAi?$AAt?$AA?9?$AAI?$AAT@ 00415c60     mfcs140ud:nolib.obj
 0002:00002c6c       ??_C@_1M@HPNHIDJI@?$AAj?$AAa?$AA?9?$AAJ?$AAP@ 00415c6c     mfcs140ud:nolib.obj
 0002:00002c78       ??_C@_1M@JLOOOEGK@?$AAk?$AAo?$AA?9?$AAK?$AAR@ 00415c78     mfcs140ud:nolib.obj
 0002:00002c84       ??_C@_1M@IHBJJGG@?$AAn?$AAl?$AA?9?$AAN?$AAL@ 00415c84     mfcs140ud:nolib.obj
 0002:00002c90       ??_C@_1M@EANAGDL@?$AAn?$AAb?$AA?9?$AAN?$AAO@ 00415c90     mfcs140ud:nolib.obj
 0002:00002c9c       ??_C@_1M@NEIEMEGP@?$AAp?$AAl?$AA?9?$AAP?$AAL@ 00415c9c     mfcs140ud:nolib.obj
 0002:00002ca8       ??_C@_1M@BOCFIGEP@?$AAp?$AAt?$AA?9?$AAB?$AAR@ 00415ca8     mfcs140ud:nolib.obj
 0002:00002cb4       ??_C@_1M@IMPFOPBG@?$AAr?$AAo?$AA?9?$AAR?$AAO@ 00415cb4     mfcs140ud:nolib.obj
 0002:00002cc0       ??_C@_1M@IDNNEJMM@?$AAr?$AAu?$AA?9?$AAR?$AAU@ 00415cc0     mfcs140ud:nolib.obj
 0002:00002ccc       ??_C@_1M@LILEEOGM@?$AAh?$AAr?$AA?9?$AAH?$AAR@ 00415ccc     mfcs140ud:nolib.obj
 0002:00002cd8       ??_C@_1M@FKIFEHPB@?$AAs?$AAk?$AA?9?$AAS?$AAK@ 00415cd8     mfcs140ud:nolib.obj
 0002:00002ce4       ??_C@_1M@LJMAMNPJ@?$AAs?$AAq?$AA?9?$AAA?$AAL@ 00415ce4     mfcs140ud:nolib.obj
 0002:00002cf0       ??_C@_1M@GIAKDKJK@?$AAs?$AAv?$AA?9?$AAS?$AAE@ 00415cf0     mfcs140ud:nolib.obj
 0002:00002cfc       ??_C@_1M@MKJKIKCL@?$AAt?$AAh?$AA?9?$AAT?$AAH@ 00415cfc     mfcs140ud:nolib.obj
 0002:00002d08       ??_C@_1M@MFLCCMPB@?$AAt?$AAr?$AA?9?$AAT?$AAR@ 00415d08     mfcs140ud:nolib.obj
 0002:00002d14       ??_C@_1M@OIJHDKJN@?$AAu?$AAr?$AA?9?$AAP?$AAK@ 00415d14     mfcs140ud:nolib.obj
 0002:00002d20       ??_C@_1M@LHIPCIEK@?$AAi?$AAd?$AA?9?$AAI?$AAD@ 00415d20     mfcs140ud:nolib.obj
 0002:00002d2c       ??_C@_1M@MFMOBGI@?$AAu?$AAk?$AA?9?$AAU?$AAA@ 00415d2c     mfcs140ud:nolib.obj
 0002:00002d38       ??_C@_1M@OBGLJIPL@?$AAb?$AAe?$AA?9?$AAB?$AAY@ 00415d38     mfcs140ud:nolib.obj
 0002:00002d44       ??_C@_1M@BCFAJEAD@?$AAs?$AAl?$AA?9?$AAS?$AAI@ 00415d44     mfcs140ud:nolib.obj
 0002:00002d50       ??_C@_1M@FKFFEDDN@?$AAe?$AAt?$AA?9?$AAE?$AAE@ 00415d50     mfcs140ud:nolib.obj
 0002:00002d5c       ??_C@_1M@KGKKAACI@?$AAl?$AAv?$AA?9?$AAL?$AAV@ 00415d5c     mfcs140ud:nolib.obj
 0002:00002d68       ??_C@_1M@IFGBIJO@?$AAl?$AAt?$AA?9?$AAL?$AAT@ 00415d68     mfcs140ud:nolib.obj
 0002:00002d74       ??_C@_1M@FGEAHEDM@?$AAf?$AAa?$AA?9?$AAI?$AAR@ 00415d74     mfcs140ud:nolib.obj
 0002:00002d80       ??_C@_1M@KBMAIBFN@?$AAv?$AAi?$AA?9?$AAV?$AAN@ 00415d80     mfcs140ud:nolib.obj
 0002:00002d8c       ??_C@_1M@GPCBKDJK@?$AAh?$AAy?$AA?9?$AAA?$AAM@ 00415d8c     mfcs140ud:nolib.obj
 0002:00002d98       ??_C@_1BG@BECMDDJB@?$AAa?$AAz?$AA?9?$AAA?$AAZ?$AA?9?$AAL?$AAa?$AAt?$AAn@ 00415d98     mfcs140ud:nolib.obj
 0002:00002db0       ??_C@_1M@MAOFCAEA@?$AAe?$AAu?$AA?9?$AAE?$AAS@ 00415db0     mfcs140ud:nolib.obj
 0002:00002dbc       ??_C@_1M@IGHABKPI@?$AAm?$AAk?$AA?9?$AAM?$AAK@ 00415dbc     mfcs140ud:nolib.obj
 0002:00002dc8       ??_C@_1M@IAIGNEJG@?$AAt?$AAn?$AA?9?$AAZ?$AAA@ 00415dc8     mfcs140ud:nolib.obj
 0002:00002dd4       ??_C@_1M@IIJCOJFA@?$AAx?$AAh?$AA?9?$AAZ?$AAA@ 00415dd4     mfcs140ud:nolib.obj
 0002:00002de0       ??_C@_1M@LGPJHNJH@?$AAz?$AAu?$AA?9?$AAZ?$AAA@ 00415de0     mfcs140ud:nolib.obj
 0002:00002dec       ??_C@_1M@HOKAOIO@?$AAa?$AAf?$AA?9?$AAZ?$AAA@ 00415dec     mfcs140ud:nolib.obj
 0002:00002df8       ??_C@_1M@DPCLHLIE@?$AAk?$AAa?$AA?9?$AAG?$AAE@ 00415df8     mfcs140ud:nolib.obj
 0002:00002e04       ??_C@_1M@BLKMHJBI@?$AAf?$AAo?$AA?9?$AAF?$AAO@ 00415e04     mfcs140ud:nolib.obj
 0002:00002e10       ??_C@_1M@LGGJAPPB@?$AAh?$AAi?$AA?9?$AAI?$AAN@ 00415e10     mfcs140ud:nolib.obj
 0002:00002e1c       ??_C@_1M@FIKPIHFE@?$AAm?$AAt?$AA?9?$AAM?$AAT@ 00415e1c     mfcs140ud:nolib.obj
 0002:00002e28       ??_C@_1M@HEGGPBFA@?$AAs?$AAe?$AA?9?$AAN?$AAO@ 00415e28     mfcs140ud:nolib.obj
 0002:00002e34       ??_C@_1M@EIBJEEPA@?$AAm?$AAs?$AA?9?$AAM?$AAY@ 00415e34     mfcs140ud:nolib.obj
 0002:00002e40       ??_C@_1M@FHLBGMPP@?$AAk?$AAk?$AA?9?$AAK?$AAZ@ 00415e40     mfcs140ud:nolib.obj
 0002:00002e4c       ??_C@_1M@NGJJLCGI@?$AAk?$AAy?$AA?9?$AAK?$AAG@ 00415e4c     mfcs140ud:nolib.obj
 0002:00002e58       ??_C@_1M@GIENNBFC@?$AAs?$AAw?$AA?9?$AAK?$AAE@ 00415e58     mfcs140ud:nolib.obj
 0002:00002e64       ??_C@_1BG@NDGMJIMJ@?$AAu?$AAz?$AA?9?$AAU?$AAZ?$AA?9?$AAL?$AAa?$AAt?$AAn@ 00415e64     mfcs140ud:nolib.obj
 0002:00002e7c       ??_C@_1M@IDCCIHBC@?$AAt?$AAt?$AA?9?$AAR?$AAU@ 00415e7c     mfcs140ud:nolib.obj
 0002:00002e88       ??_C@_1M@LOICPMOJ@?$AAb?$AAn?$AA?9?$AAI?$AAN@ 00415e88     mfcs140ud:nolib.obj
 0002:00002e94       ??_C@_1M@KPKKNEAH@?$AAp?$AAa?$AA?9?$AAI?$AAN@ 00415e94     mfcs140ud:nolib.obj
 0002:00002ea0       ??_C@_1M@PJGPPBOG@?$AAg?$AAu?$AA?9?$AAI?$AAN@ 00415ea0     mfcs140ud:nolib.obj
 0002:00002eac       ??_C@_1M@KMKMOPHI@?$AAt?$AAa?$AA?9?$AAI?$AAN@ 00415eac     mfcs140ud:nolib.obj
 0002:00002eb8       ??_C@_1M@KFEHEPAC@?$AAt?$AAe?$AA?9?$AAI?$AAN@ 00415eb8     mfcs140ud:nolib.obj
 0002:00002ec4       ??_C@_1M@CDCLMGHI@?$AAk?$AAn?$AA?9?$AAI?$AAN@ 00415ec4     mfcs140ud:nolib.obj
 0002:00002ed0       ??_C@_1M@MIODLDKF@?$AAm?$AAl?$AA?9?$AAI?$AAN@ 00415ed0     mfcs140ud:nolib.obj
 0002:00002edc       ??_C@_1M@PBIEACPO@?$AAm?$AAr?$AA?9?$AAI?$AAN@ 00415edc     mfcs140ud:nolib.obj
 0002:00002ee8       ??_C@_1M@NIDEAGPH@?$AAs?$AAa?$AA?9?$AAI?$AAN@ 00415ee8     mfcs140ud:nolib.obj
 0002:00002ef4       ??_C@_1M@FHIHCBIO@?$AAm?$AAn?$AA?9?$AAM?$AAN@ 00415ef4     mfcs140ud:nolib.obj
 0002:00002f00       ??_C@_1M@JAIJPENP@?$AAc?$AAy?$AA?9?$AAG?$AAB@ 00415f00     mfcs140ud:nolib.obj
 0002:00002f0c       ??_C@_1M@PHGFBEPN@?$AAg?$AAl?$AA?9?$AAE?$AAS@ 00415f0c     mfcs140ud:nolib.obj
 0002:00002f18       ??_C@_1O@KPIPDNCP@?$AAk?$AAo?$AAk?$AA?9?$AAI?$AAN@ 00415f18     mfcs140ud:nolib.obj
 0002:00002f28       ??_C@_1O@KNHJLDJA@?$AAs?$AAy?$AAr?$AA?9?$AAS?$AAY@ 00415f28     mfcs140ud:nolib.obj
 0002:00002f38       ??_C@_1O@MKEKBLAH@?$AAd?$AAi?$AAv?$AA?9?$AAM?$AAV@ 00415f38     mfcs140ud:nolib.obj
 0002:00002f48       ??_C@_1O@OHDCKDDF@?$AAq?$AAu?$AAz?$AA?9?$AAB?$AAO@ 00415f48     mfcs140ud:nolib.obj
 0002:00002f58       ??_C@_1M@LEPJNLFD@?$AAn?$AAs?$AA?9?$AAZ?$AAA@ 00415f58     mfcs140ud:nolib.obj
 0002:00002f64       ??_C@_1M@OMLEIIJB@?$AAm?$AAi?$AA?9?$AAN?$AAZ@ 00415f64     mfcs140ud:nolib.obj
 0002:00002f70       ??_C@_1M@PMPEAILG@?$AAa?$AAr?$AA?9?$AAI?$AAQ@ 00415f70     mfcs140ud:nolib.obj
 0002:00002f7c       ??_C@_1M@BIBDDEMK@?$AAz?$AAh?$AA?9?$AAC?$AAN@ 00415f7c     mfcs140ud:nolib.obj
 0002:00002f88       ??_C@_1M@CNKPNOEE@?$AAd?$AAe?$AA?9?$AAC?$AAH@ 00415f88     mfcs140ud:nolib.obj
 0002:00002f94       ??_C@_1M@LKMGMLKO@?$AAe?$AAn?$AA?9?$AAG?$AAB@ 00415f94     mfcs140ud:nolib.obj
 0002:00002fa0       ??_C@_1M@PGKJFFGL@?$AAe?$AAs?$AA?9?$AAM?$AAX@ 00415fa0     mfcs140ud:nolib.obj
 0002:00002fac       ??_C@_1M@DNNANBDC@?$AAf?$AAr?$AA?9?$AAB?$AAE@ 00415fac     mfcs140ud:nolib.obj
 0002:00002fb8       ??_C@_1M@HLGMDFHM@?$AAi?$AAt?$AA?9?$AAC?$AAH@ 00415fb8     mfcs140ud:nolib.obj
 0002:00002fc4       ??_C@_1M@CLLBGJH@?$AAn?$AAl?$AA?9?$AAB?$AAE@ 00415fc4     mfcs140ud:nolib.obj
 0002:00002fd0       ??_C@_1M@BODBOGLF@?$AAn?$AAn?$AA?9?$AAN?$AAO@ 00415fd0     mfcs140ud:nolib.obj
 0002:00002fdc       ??_C@_1M@HFFAHKAD@?$AAp?$AAt?$AA?9?$AAP?$AAT@ 00415fdc     mfcs140ud:nolib.obj
 0002:00002fe8       ??_C@_1BG@LNOAKHIE@?$AAs?$AAr?$AA?9?$AAS?$AAP?$AA?9?$AAL?$AAa?$AAt?$AAn@ 00415fe8     mfcs140ud:nolib.obj
 0002:00003000       ??_C@_1M@HBMHBGAK@?$AAs?$AAv?$AA?9?$AAF?$AAI@ 00416000     mfcs140ud:nolib.obj
 0002:0000300c       ??_C@_1BG@DGCJGJBE@?$AAa?$AAz?$AA?9?$AAA?$AAZ?$AA?9?$AAC?$AAy?$AAr?$AAl@ 0041600c     mfcs140ud:nolib.obj
 0002:00003024       ??_C@_1M@KEJDAAHB@?$AAs?$AAe?$AA?9?$AAS?$AAE@ 00416024     mfcs140ud:nolib.obj
 0002:00003030       ??_C@_1M@HEIBJJAD@?$AAm?$AAs?$AA?9?$AAB?$AAN@ 00416030     mfcs140ud:nolib.obj
 0002:0000303c       ??_C@_1BG@PBGJMCEM@?$AAu?$AAz?$AA?9?$AAU?$AAZ?$AA?9?$AAC?$AAy?$AAr?$AAl@ 0041603c     mfcs140ud:nolib.obj
 0002:00003054       ??_C@_1O@LAOBCMDF@?$AAq?$AAu?$AAz?$AA?9?$AAE?$AAC@ 00416054     mfcs140ud:nolib.obj
 0002:00003064       ??_C@_1M@POEEMAIO@?$AAa?$AAr?$AA?9?$AAE?$AAG@ 00416064     mfcs140ud:nolib.obj
 0002:00003070       ??_C@_1M@EFAKDEDL@?$AAz?$AAh?$AA?9?$AAH?$AAK@ 00416070     mfcs140ud:nolib.obj
 0002:0000307c       ??_C@_1M@HKKIJHGI@?$AAd?$AAe?$AA?9?$AAA?$AAT@ 0041607c     mfcs140ud:nolib.obj
 0002:00003088       ??_C@_1M@KBFBEHJF@?$AAe?$AAn?$AA?9?$AAA?$AAU@ 00416088     mfcs140ud:nolib.obj
 0002:00003094       ??_C@_1M@MNPLFAAH@?$AAe?$AAs?$AA?9?$AAE?$AAS@ 00416094     mfcs140ud:nolib.obj
 0002:000030a0       ??_C@_1M@HJOOJFMA@?$AAf?$AAr?$AA?9?$AAC?$AAA@ 004160a0     mfcs140ud:nolib.obj
 0002:000030ac       ??_C@_1BG@JPOFPNAB@?$AAs?$AAr?$AA?9?$AAS?$AAP?$AA?9?$AAC?$AAy?$AAr?$AAl@ 004160ac     mfcs140ud:nolib.obj
 0002:000030c4       ??_C@_1M@LNFOCMOB@?$AAs?$AAe?$AA?9?$AAF?$AAI@ 004160c4     mfcs140ud:nolib.obj
 0002:000030d0       ??_C@_1O@MGJBOAMB@?$AAq?$AAu?$AAz?$AA?9?$AAP?$AAE@ 004160d0     mfcs140ud:nolib.obj
 0002:000030e0       ??_C@_1M@GJINLBOK@?$AAa?$AAr?$AA?9?$AAL?$AAY@ 004160e0     mfcs140ud:nolib.obj
 0002:000030ec       ??_C@_1M@GGMNHJNL@?$AAz?$AAh?$AA?9?$AAS?$AAG@ 004160ec     mfcs140ud:nolib.obj
 0002:000030f8       ??_C@_1M@HOIKODND@?$AAd?$AAe?$AA?9?$AAL?$AAU@ 004160f8     mfcs140ud:nolib.obj
 0002:00003104       ??_C@_1M@DDOCCGFG@?$AAe?$AAn?$AA?9?$AAC?$AAA@ 00416104     mfcs140ud:nolib.obj
 0002:00003110       ??_C@_1M@BNOEMJLF@?$AAe?$AAs?$AA?9?$AAG?$AAT@ 00416110     mfcs140ud:nolib.obj
 0002:0000311c       ??_C@_1M@EOGNKEK@?$AAf?$AAr?$AA?9?$AAC?$AAH@ 0041611c     mfcs140ud:nolib.obj
 0002:00003128       ??_C@_1M@FLIDJFHL@?$AAh?$AAr?$AA?9?$AAB?$AAA@ 00416128     mfcs140ud:nolib.obj
 0002:00003134       ??_C@_1O@FMCELNAJ@?$AAs?$AAm?$AAj?$AA?9?$AAN?$AAO@ 00416134     mfcs140ud:nolib.obj
 0002:00003144       ??_C@_1M@JHGLJMGJ@?$AAa?$AAr?$AA?9?$AAD?$AAZ@ 00416144     mfcs140ud:nolib.obj
 0002:00003150       ??_C@_1M@JKKFDCNP@?$AAz?$AAh?$AA?9?$AAM?$AAO@ 00416150     mfcs140ud:nolib.obj
 0002:0000315c       ??_C@_1M@GEEFALPE@?$AAd?$AAe?$AA?9?$AAL?$AAI@ 0041615c     mfcs140ud:nolib.obj
 0002:00003168       ??_C@_1M@IGEOFBG@?$AAe?$AAn?$AA?9?$AAN?$AAZ@ 00416168     mfcs140ud:nolib.obj
 0002:00003174       ??_C@_1M@KDBONEHP@?$AAe?$AAs?$AA?9?$AAC?$AAR@ 00416174     mfcs140ud:nolib.obj
 0002:00003180       ??_C@_1M@FHMDOHNN@?$AAf?$AAr?$AA?9?$AAL?$AAU@ 00416180     mfcs140ud:nolib.obj
 0002:0000318c       ??_C@_1BG@NFKKMAFG@?$AAb?$AAs?$AA?9?$AAB?$AAA?$AA?9?$AAL?$AAa?$AAt?$AAn@ 0041618c     mfcs140ud:nolib.obj
 0002:000031a4       ??_C@_1O@IMNBEMCI@?$AAs?$AAm?$AAj?$AA?9?$AAS?$AAE@ 004161a4     mfcs140ud:nolib.obj
 0002:000031b4       ??_C@_1M@DHHMBNDP@?$AAa?$AAr?$AA?9?$AAM?$AAA@ 004161b4     mfcs140ud:nolib.obj
 0002:000031c0       ??_C@_1M@BNBLJCGH@?$AAe?$AAn?$AA?9?$AAI?$AAE@ 004161c0     mfcs140ud:nolib.obj
 0002:000031cc       ??_C@_1M@GEPAFMDL@?$AAe?$AAs?$AA?9?$AAP?$AAA@ 004161cc     mfcs140ud:nolib.obj
 0002:000031d8       ??_C@_1M@OJONDMDL@?$AAf?$AAr?$AA?9?$AAM?$AAC@ 004161d8     mfcs140ud:nolib.obj
 0002:000031e4       ??_C@_1BG@OBCNFJB@?$AAs?$AAr?$AA?9?$AAB?$AAA?$AA?9?$AAL?$AAa?$AAt?$AAn@ 004161e4     mfcs140ud:nolib.obj
 0002:000031fc       ??_C@_1O@KEMEEGPO@?$AAs?$AAm?$AAa?$AA?9?$AAN?$AAO@ 004161fc     mfcs140ud:nolib.obj
 0002:0000320c       ??_C@_1M@ELMGFODK@?$AAa?$AAr?$AA?9?$AAT?$AAN@ 0041620c     mfcs140ud:nolib.obj
 0002:00003218       ??_C@_1M@BHDLHFAF@?$AAe?$AAn?$AA?9?$AAZ?$AAA@ 00416218     mfcs140ud:nolib.obj
 0002:00003224       ??_C@_1M@BMGIGLIF@?$AAe?$AAs?$AA?9?$AAD?$AAO@ 00416224     mfcs140ud:nolib.obj
 0002:00003230       ??_C@_1BG@CMBHIPBE@?$AAs?$AAr?$AA?9?$AAB?$AAA?$AA?9?$AAC?$AAy?$AAr?$AAl@ 00416230     mfcs140ud:nolib.obj
 0002:00003248       ??_C@_1O@HEDBLHNP@?$AAs?$AAm?$AAa?$AA?9?$AAS?$AAE@ 00416248     mfcs140ud:nolib.obj
 0002:00003258       ??_C@_1M@DAGCADIM@?$AAa?$AAr?$AA?9?$AAO?$AAM@ 00416258     mfcs140ud:nolib.obj
 0002:00003264       ??_C@_1M@FODLMICG@?$AAe?$AAn?$AA?9?$AAJ?$AAM@ 00416264     mfcs140ud:nolib.obj
 0002:00003270       ??_C@_1M@DNMLCIHB@?$AAe?$AAs?$AA?9?$AAV?$AAE@ 00416270     mfcs140ud:nolib.obj
 0002:0000327c       ??_C@_1O@EOKHMKJK@?$AAs?$AAm?$AAs?$AA?9?$AAF?$AAI@ 0041627c     mfcs140ud:nolib.obj
 0002:0000328c       ??_C@_1M@CAFJMKOF@?$AAa?$AAr?$AA?9?$AAY?$AAE@ 0041628c     mfcs140ud:nolib.obj
 0002:00003298       ??_C@_1M@CBFHIJLI@?$AAe?$AAn?$AA?9?$AAC?$AAB@ 00416298     mfcs140ud:nolib.obj
 0002:000032a4       ??_C@_1M@BGNFLDN@?$AAe?$AAs?$AA?9?$AAC?$AAO@ 004162a4     mfcs140ud:nolib.obj
 0002:000032b0       ??_C@_1O@JMPHMAMC@?$AAs?$AAm?$AAn?$AA?9?$AAF?$AAI@ 004162b0     mfcs140ud:nolib.obj
 0002:000032c0       ??_C@_1M@JLANABKE@?$AAa?$AAr?$AA?9?$AAS?$AAY@ 004162c0     mfcs140ud:nolib.obj
 0002:000032cc       ??_C@_1M@HPKGCFGN@?$AAe?$AAn?$AA?9?$AAB?$AAZ@ 004162cc     mfcs140ud:nolib.obj
 0002:000032d8       ??_C@_1M@OLJCMLGM@?$AAe?$AAs?$AA?9?$AAP?$AAE@ 004162d8     mfcs140ud:nolib.obj
 0002:000032e4       ??_C@_1M@MKKGFKLE@?$AAa?$AAr?$AA?9?$AAJ?$AAO@ 004162e4     mfcs140ud:nolib.obj
 0002:000032f0       ??_C@_1M@EKPGLDNI@?$AAe?$AAn?$AA?9?$AAT?$AAT@ 004162f0     mfcs140ud:nolib.obj
 0002:000032fc       ??_C@_1M@OONGHFHE@?$AAe?$AAs?$AA?9?$AAA?$AAR@ 004162fc     mfcs140ud:nolib.obj
 0002:00003308       ??_C@_1M@OOJFGBHE@?$AAa?$AAr?$AA?9?$AAL?$AAB@ 00416308     mfcs140ud:nolib.obj
 0002:00003314       ??_C@_1M@GCEJHNEG@?$AAe?$AAn?$AA?9?$AAZ?$AAW@ 00416314     mfcs140ud:nolib.obj
 0002:00003320       ??_C@_1M@JNOCAHJI@?$AAe?$AAs?$AA?9?$AAE?$AAC@ 00416320     mfcs140ud:nolib.obj
 0002:0000332c       ??_C@_1M@JEFHPGGB@?$AAa?$AAr?$AA?9?$AAK?$AAW@ 0041632c     mfcs140ud:nolib.obj
 0002:00003338       ??_C@_1M@MLKIBJOJ@?$AAe?$AAn?$AA?9?$AAP?$AAH@ 00416338     mfcs140ud:nolib.obj
 0002:00003344       ??_C@_1M@BDNIPEND@?$AAe?$AAs?$AA?9?$AAC?$AAL@ 00416344     mfcs140ud:nolib.obj
 0002:00003350       ??_C@_1M@MPNMEKBD@?$AAa?$AAr?$AA?9?$AAA?$AAE@ 00416350     mfcs140ud:nolib.obj
 0002:0000335c       ??_C@_1M@KBJALCPI@?$AAe?$AAs?$AA?9?$AAU?$AAY@ 0041635c     mfcs140ud:nolib.obj
 0002:00003368       ??_C@_1M@LLCCOAGA@?$AAa?$AAr?$AA?9?$AAB?$AAH@ 00416368     mfcs140ud:nolib.obj
 0002:00003374       ??_C@_1M@PBFNCDEL@?$AAe?$AAs?$AA?9?$AAP?$AAY@ 00416374     mfcs140ud:nolib.obj
 0002:00003380       ??_C@_1M@EDGINPNP@?$AAa?$AAr?$AA?9?$AAQ?$AAA@ 00416380     mfcs140ud:nolib.obj
 0002:0000338c       ??_C@_1M@MKDBIIJI@?$AAe?$AAs?$AA?9?$AAB?$AAO@ 0041638c     mfcs140ud:nolib.obj
 0002:00003398       ??_C@_1M@CPKKEBLD@?$AAe?$AAs?$AA?9?$AAS?$AAV@ 00416398     mfcs140ud:nolib.obj
 0002:000033a4       ??_C@_1M@NDBGMMJL@?$AAe?$AAs?$AA?9?$AAH?$AAN@ 004163a4     mfcs140ud:nolib.obj
 0002:000033b0       ??_C@_1M@JIJIBHDP@?$AAe?$AAs?$AA?9?$AAN?$AAI@ 004163b0     mfcs140ud:nolib.obj
 0002:000033bc       ??_C@_1M@CGFMKEEK@?$AAe?$AAs?$AA?9?$AAP?$AAR@ 004163bc     mfcs140ud:nolib.obj
 0002:000033c8       ??_C@_1O@ICJHKIIK@?$AAz?$AAh?$AA?9?$AAC?$AAH?$AAT@ 004163c8     mfcs140ud:nolib.obj
 0002:000033d8       ??_C@_15CLNEJCE@?$AAs?$AAr@ 004163d8     mfcs140ud:nolib.obj
 0002:000033e0       __pAtlLocaleNameToIndexTable 004163e0     mfcs140ud:nolib.obj
 0002:00003b00       ??_C@_1M@KAHEKEIG@?$AAa?$AAf?$AA?9?$AAz?$AAa@ 00416b00     mfcs140ud:nolib.obj
 0002:00003b0c       ??_C@_1M@GIECOABL@?$AAa?$AAr?$AA?9?$AAa?$AAe@ 00416b0c     mfcs140ud:nolib.obj
 0002:00003b18       ??_C@_1M@BMLMEKGI@?$AAa?$AAr?$AA?9?$AAb?$AAh@ 00416b18     mfcs140ud:nolib.obj
 0002:00003b24       ??_C@_1M@DAPFDGGB@?$AAa?$AAr?$AA?9?$AAd?$AAz@ 00416b24     mfcs140ud:nolib.obj
 0002:00003b30       ??_C@_1M@FJNKGKIG@?$AAa?$AAr?$AA?9?$AAe?$AAg@ 00416b30     mfcs140ud:nolib.obj
 0002:00003b3c       ??_C@_1M@FLGKKCLO@?$AAa?$AAr?$AA?9?$AAi?$AAq@ 00416b3c     mfcs140ud:nolib.obj
 0002:00003b48       ??_C@_1M@GNDIPALM@?$AAa?$AAr?$AA?9?$AAj?$AAo@ 00416b48     mfcs140ud:nolib.obj
 0002:00003b54       ??_C@_1M@DDMJFMGJ@?$AAa?$AAr?$AA?9?$AAk?$AAw@ 00416b54     mfcs140ud:nolib.obj
 0002:00003b60       ??_C@_1M@EJALMLHM@?$AAa?$AAr?$AA?9?$AAl?$AAb@ 00416b60     mfcs140ud:nolib.obj
 0002:00003b6c       ??_C@_1M@MOBDBLOC@?$AAa?$AAr?$AA?9?$AAl?$AAy@ 00416b6c     mfcs140ud:nolib.obj
 0002:00003b78       ??_C@_1M@JAOCLHDH@?$AAa?$AAr?$AA?9?$AAm?$AAa@ 00416b78     mfcs140ud:nolib.obj
 0002:00003b84       ??_C@_1M@JHPMKJIE@?$AAa?$AAr?$AA?9?$AAo?$AAm@ 00416b84     mfcs140ud:nolib.obj
 0002:00003b90       ??_C@_1M@OEPGHFNH@?$AAa?$AAr?$AA?9?$AAq?$AAa@ 00416b90     mfcs140ud:nolib.obj
 0002:00003b9c       ??_C@_1M@KJDONENM@?$AAa?$AAr?$AA?9?$AAs?$AAa@ 00416b9c     mfcs140ud:nolib.obj
 0002:00003ba8       ??_C@_1M@DMJDKLKM@?$AAa?$AAr?$AA?9?$AAs?$AAy@ 00416ba8     mfcs140ud:nolib.obj
 0002:00003bb4       ??_C@_1M@OMFIPEDC@?$AAa?$AAr?$AA?9?$AAt?$AAn@ 00416bb4     mfcs140ud:nolib.obj
 0002:00003bc0       ??_C@_1M@IHMHGAON@?$AAa?$AAr?$AA?9?$AAy?$AAe@ 00416bc0     mfcs140ud:nolib.obj
 0002:00003bcc       ??_C@_1BG@KDCPGJGB@?$AAa?$AAz?$AA?9?$AAa?$AAz?$AA?9?$AAc?$AAy?$AAr?$AAl@ 00416bcc     mfcs140ud:nolib.obj
 0002:00003be4       ??_C@_1BG@IBCKDDOE@?$AAa?$AAz?$AA?9?$AAa?$AAz?$AA?9?$AAl?$AAa?$AAt?$AAn@ 00416be4     mfcs140ud:nolib.obj
 0002:00003bfc       ??_C@_1M@EGPFDCPD@?$AAb?$AAe?$AA?9?$AAb?$AAy@ 00416bfc     mfcs140ud:nolib.obj
 0002:00003c08       ??_C@_1M@PCMGMCGC@?$AAb?$AAg?$AA?9?$AAb?$AAg@ 00416c08     mfcs140ud:nolib.obj
 0002:00003c14       ??_C@_1M@BJBMFGOB@?$AAb?$AAn?$AA?9?$AAi?$AAn@ 00416c14     mfcs140ud:nolib.obj
 0002:00003c20       ??_C@_1BG@EAKMMACD@?$AAb?$AAs?$AA?9?$AAb?$AAa?$AA?9?$AAl?$AAa?$AAt?$AAn@ 00416c20     mfcs140ud:nolib.obj
 0002:00003c38       ??_C@_1M@KGADAODK@?$AAc?$AAa?$AA?9?$AAe?$AAs@ 00416c38     mfcs140ud:nolib.obj
 0002:00003c44       ??_C@_1M@COAJPDHI@?$AAc?$AAs?$AA?9?$AAc?$AAz@ 00416c44     mfcs140ud:nolib.obj
 0002:00003c50       ??_C@_1M@DHBHFONH@?$AAc?$AAy?$AA?9?$AAg?$AAb@ 00416c50     mfcs140ud:nolib.obj
 0002:00003c5c       ??_C@_1M@IMGKELGA@?$AAd?$AAa?$AA?9?$AAd?$AAk@ 00416c5c     mfcs140ud:nolib.obj
 0002:00003c68       ??_C@_1M@NNDGDNGA@?$AAd?$AAe?$AA?9?$AAa?$AAt@ 00416c68     mfcs140ud:nolib.obj
 0002:00003c74       ??_C@_1M@IKDBHEEM@?$AAd?$AAe?$AA?9?$AAc?$AAh@ 00416c74     mfcs140ud:nolib.obj
 0002:00003c80       ??_C@_1M@GFFOJMCJ@?$AAd?$AAe?$AA?9?$AAd?$AAe@ 00416c80     mfcs140ud:nolib.obj
 0002:00003c8c       ??_C@_1M@MDNLKBPM@?$AAd?$AAe?$AA?9?$AAl?$AAi@ 00416c8c     mfcs140ud:nolib.obj
 0002:00003c98       ??_C@_1M@NJBEEJNL@?$AAd?$AAe?$AA?9?$AAl?$AAu@ 00416c98     mfcs140ud:nolib.obj
 0002:00003ca4       ??_C@_1O@GNNELBAP@?$AAd?$AAi?$AAv?$AA?9?$AAm?$AAv@ 00416ca4     mfcs140ud:nolib.obj
 0002:00003cb4       ??_C@_1M@EJLEOGAE@?$AAe?$AAl?$AA?9?$AAg?$AAr@ 00416cb4     mfcs140ud:nolib.obj
 0002:00003cc0       ??_C@_1M@GMPONJN@?$AAe?$AAn?$AA?9?$AAa?$AAu@ 00416cc0     mfcs140ud:nolib.obj
 0002:00003ccc       ??_C@_1M@NIDIIPGF@?$AAe?$AAn?$AA?9?$AAb?$AAz@ 00416ccc     mfcs140ud:nolib.obj
 0002:00003cd8       ??_C@_1M@JEHMIMFO@?$AAe?$AAn?$AA?9?$AAc?$AAa@ 00416cd8     mfcs140ud:nolib.obj
 0002:00003ce4       ??_C@_1M@IGMJCDLA@?$AAe?$AAn?$AA?9?$AAc?$AAb@ 00416ce4     mfcs140ud:nolib.obj
 0002:00003cf0       ??_C@_1M@BNFIGBKG@?$AAe?$AAn?$AA?9?$AAg?$AAb@ 00416cf0     mfcs140ud:nolib.obj
 0002:00003cfc       ??_C@_1M@LKIFDIGP@?$AAe?$AAn?$AA?9?$AAi?$AAe@ 00416cfc     mfcs140ud:nolib.obj
 0002:00003d08       ??_C@_1M@PJKFGCCO@?$AAe?$AAn?$AA?9?$AAj?$AAm@ 00416d08     mfcs140ud:nolib.obj
 0002:00003d14       ??_C@_1M@KPPKEPBO@?$AAe?$AAn?$AA?9?$AAn?$AAz@ 00416d14     mfcs140ud:nolib.obj
 0002:00003d20       ??_C@_1M@GMDGLDOB@?$AAe?$AAn?$AA?9?$AAp?$AAh@ 00416d20     mfcs140ud:nolib.obj
 0002:00003d2c       ??_C@_1M@ONGIBJNA@?$AAe?$AAn?$AA?9?$AAt?$AAt@ 00416d2c     mfcs140ud:nolib.obj
 0002:00003d38       ??_C@_1M@LLODPCMM@?$AAe?$AAn?$AA?9?$AAu?$AAs@ 00416d38     mfcs140ud:nolib.obj
 0002:00003d44       ??_C@_1M@LAKFNPAN@?$AAe?$AAn?$AA?9?$AAz?$AAa@ 00416d44     mfcs140ud:nolib.obj
 0002:00003d50       ??_C@_1M@MFNHNHEO@?$AAe?$AAn?$AA?9?$AAz?$AAw@ 00416d50     mfcs140ud:nolib.obj
 0002:00003d5c       ??_C@_1M@EJEINPHM@?$AAe?$AAs?$AA?9?$AAa?$AAr@ 00416d5c     mfcs140ud:nolib.obj
 0002:00003d68       ??_C@_1M@GNKPCCJA@?$AAe?$AAs?$AA?9?$AAb?$AAo@ 00416d68     mfcs140ud:nolib.obj
 0002:00003d74       ??_C@_1M@LEEGFONL@?$AAe?$AAs?$AA?9?$AAc?$AAl@ 00416d74     mfcs140ud:nolib.obj
 0002:00003d80       ??_C@_1M@KGPDPBDF@?$AAe?$AAs?$AA?9?$AAc?$AAo@ 00416d80     mfcs140ud:nolib.obj
 0002:00003d8c       ??_C@_1M@EIAHOHH@?$AAe?$AAs?$AA?9?$AAc?$AAr@ 00416d8c     mfcs140ud:nolib.obj
 0002:00003d98       ??_C@_1M@LLPGMBIN@?$AAe?$AAs?$AA?9?$AAd?$AAo@ 00416d98     mfcs140ud:nolib.obj
 0002:00003da4       ??_C@_1M@DKHMKNJA@?$AAe?$AAs?$AA?9?$AAe?$AAc@ 00416da4     mfcs140ud:nolib.obj
 0002:00003db0       ??_C@_1M@GKGFPKAP@?$AAe?$AAs?$AA?9?$AAe?$AAs@ 00416db0     mfcs140ud:nolib.obj
 0002:00003dbc       ??_C@_1M@LKHKGDLN@?$AAe?$AAs?$AA?9?$AAg?$AAt@ 00416dbc     mfcs140ud:nolib.obj
 0002:00003dc8       ??_C@_1M@HEIIGGJD@?$AAe?$AAs?$AA?9?$AAh?$AAn@ 00416dc8     mfcs140ud:nolib.obj
 0002:00003dd4       ??_C@_1M@FBDHPPGD@?$AAe?$AAs?$AA?9?$AAm?$AAx@ 00416dd4     mfcs140ud:nolib.obj
 0002:00003de0       ??_C@_1M@DPAGLNDH@?$AAe?$AAs?$AA?9?$AAn?$AAi@ 00416de0     mfcs140ud:nolib.obj
 0002:00003dec       ??_C@_1M@MDGOPGDD@?$AAe?$AAs?$AA?9?$AAp?$AAa@ 00416dec     mfcs140ud:nolib.obj
 0002:00003df8       ??_C@_1M@EMAMGBGE@?$AAe?$AAs?$AA?9?$AAp?$AAe@ 00416df8     mfcs140ud:nolib.obj
 0002:00003e04       ??_C@_1M@IBMCAOEC@?$AAe?$AAs?$AA?9?$AAp?$AAr@ 00416e04     mfcs140ud:nolib.obj
 0002:00003e10       ??_C@_1M@FGMDIJED@?$AAe?$AAs?$AA?9?$AAp?$AAy@ 00416e10     mfcs140ud:nolib.obj
 0002:00003e1c       ??_C@_1M@IIDEOLLL@?$AAe?$AAs?$AA?9?$AAs?$AAv@ 00416e1c     mfcs140ud:nolib.obj
 0002:00003e28       ??_C@_1M@GAOBIPA@?$AAe?$AAs?$AA?9?$AAu?$AAy@ 00416e28     mfcs140ud:nolib.obj
 0002:00003e34       ??_C@_1M@JKFFICHJ@?$AAe?$AAs?$AA?9?$AAv?$AAe@ 00416e34     mfcs140ud:nolib.obj
 0002:00003e40       ??_C@_1M@PNMLOJDF@?$AAe?$AAt?$AA?9?$AAe?$AAe@ 00416e40     mfcs140ud:nolib.obj
 0002:00003e4c       ??_C@_1M@GHHLIKEI@?$AAe?$AAu?$AA?9?$AAe?$AAs@ 00416e4c     mfcs140ud:nolib.obj
 0002:00003e58       ??_C@_1M@PBNONODE@?$AAf?$AAa?$AA?9?$AAi?$AAr@ 00416e58     mfcs140ud:nolib.obj
 0002:00003e64       ??_C@_1M@JEEHPMIL@?$AAf?$AAi?$AA?9?$AAf?$AAi@ 00416e64     mfcs140ud:nolib.obj
 0002:00003e70       ??_C@_1M@LMDCNDBA@?$AAf?$AAo?$AA?9?$AAf?$AAo@ 00416e70     mfcs140ud:nolib.obj
 0002:00003e7c       ??_C@_1M@JKEOHLDK@?$AAf?$AAr?$AA?9?$AAb?$AAe@ 00416e7c     mfcs140ud:nolib.obj
 0002:00003e88       ??_C@_1M@NOHADPMI@?$AAf?$AAr?$AA?9?$AAc?$AAa@ 00416e88     mfcs140ud:nolib.obj
 0002:00003e94       ??_C@_1M@KDHIHAEC@?$AAf?$AAr?$AA?9?$AAc?$AAh@ 00416e94     mfcs140ud:nolib.obj
 0002:00003ea0       ??_C@_1M@MMBBFGAK@?$AAf?$AAr?$AA?9?$AAf?$AAr@ 00416ea0     mfcs140ud:nolib.obj
 0002:00003eac       ??_C@_1M@PAFNENNF@?$AAf?$AAr?$AA?9?$AAl?$AAu@ 00416eac     mfcs140ud:nolib.obj
 0002:00003eb8       ??_C@_1M@EOHDJGDD@?$AAf?$AAr?$AA?9?$AAm?$AAc@ 00416eb8     mfcs140ud:nolib.obj
 0002:00003ec4       ??_C@_1M@FAPLLOPF@?$AAg?$AAl?$AA?9?$AAe?$AAs@ 00416ec4     mfcs140ud:nolib.obj
 0002:00003ed0       ??_C@_1M@FOPBFLOO@?$AAg?$AAu?$AA?9?$AAi?$AAn@ 00416ed0     mfcs140ud:nolib.obj
 0002:00003edc       ??_C@_1M@KBMCINPM@?$AAh?$AAe?$AA?9?$AAi?$AAl@ 00416edc     mfcs140ud:nolib.obj
 0002:00003ee8       ??_C@_1M@BBPHKFPJ@?$AAh?$AAi?$AA?9?$AAi?$AAn@ 00416ee8     mfcs140ud:nolib.obj
 0002:00003ef4       ??_C@_1M@PMBNDPHD@?$AAh?$AAr?$AA?9?$AAb?$AAa@ 00416ef4     mfcs140ud:nolib.obj
 0002:00003f00       ??_C@_1M@BPCKOEGE@?$AAh?$AAr?$AA?9?$AAh?$AAr@ 00416f00     mfcs140ud:nolib.obj
 0002:00003f0c       ??_C@_1M@GACBMHKE@?$AAh?$AAu?$AA?9?$AAh?$AAu@ 00416f0c     mfcs140ud:nolib.obj
 0002:00003f18       ??_C@_1M@MILPAJJC@?$AAh?$AAy?$AA?9?$AAa?$AAm@ 00416f18     mfcs140ud:nolib.obj
 0002:00003f24       ??_C@_1M@BABBICEC@?$AAi?$AAd?$AA?9?$AAi?$AAd@ 00416f24     mfcs140ud:nolib.obj
 0002:00003f30       ??_C@_1M@BIKNHHPF@?$AAi?$AAs?$AA?9?$AAi?$AAs@ 00416f30     mfcs140ud:nolib.obj
 0002:00003f3c       ??_C@_1M@NMPCJPHE@?$AAi?$AAt?$AA?9?$AAc?$AAh@ 00416f3c     mfcs140ud:nolib.obj
 0002:00003f48       ??_C@_1M@GHKGFEDF@?$AAi?$AAt?$AA?9?$AAi?$AAt@ 00416f48     mfcs140ud:nolib.obj
 0002:00003f54       ??_C@_1M@NIEJCJJA@?$AAj?$AAa?$AA?9?$AAj?$AAp@ 00416f54     mfcs140ud:nolib.obj
 0002:00003f60       ??_C@_1M@JILFNBIM@?$AAk?$AAa?$AA?9?$AAg?$AAe@ 00416f60     mfcs140ud:nolib.obj
 0002:00003f6c       ??_C@_1M@PACPMGPH@?$AAk?$AAk?$AA?9?$AAk?$AAz@ 00416f6c     mfcs140ud:nolib.obj
 0002:00003f78       ??_C@_1M@IELFGMHA@?$AAk?$AAn?$AA?9?$AAi?$AAn@ 00416f78     mfcs140ud:nolib.obj
 0002:00003f84       ??_C@_1O@IBBJHCH@?$AAk?$AAo?$AAk?$AA?9?$AAi?$AAn@ 00416f84     mfcs140ud:nolib.obj
 0002:00003f94       ??_C@_1M@DMHAEOGC@?$AAk?$AAo?$AA?9?$AAk?$AAr@ 00416f94     mfcs140ud:nolib.obj
 0002:00003fa0       ??_C@_1M@HBAHBIGA@?$AAk?$AAy?$AA?9?$AAk?$AAg@ 00416fa0     mfcs140ud:nolib.obj
 0002:00003fac       ??_C@_1M@KPMILCJG@?$AAl?$AAt?$AA?9?$AAl?$AAt@ 00416fac     mfcs140ud:nolib.obj
 0002:00003fb8       ??_C@_1M@BDEKKCA@?$AAl?$AAv?$AA?9?$AAl?$AAv@ 00416fb8     mfcs140ud:nolib.obj
 0002:00003fc4       ??_C@_1M@ELCKCCJJ@?$AAm?$AAi?$AA?9?$AAn?$AAz@ 00416fc4     mfcs140ud:nolib.obj
 0002:00003fd0       ??_C@_1M@CBOOLAPA@?$AAm?$AAk?$AA?9?$AAm?$AAk@ 00416fd0     mfcs140ud:nolib.obj
 0002:00003fdc       ??_C@_1M@GPHNBJKN@?$AAm?$AAl?$AA?9?$AAi?$AAn@ 00416fdc     mfcs140ud:nolib.obj
 0002:00003fe8       ??_C@_1M@PABJILIG@?$AAm?$AAn?$AA?9?$AAm?$AAn@ 00416fe8     mfcs140ud:nolib.obj
 0002:00003ff4       ??_C@_1M@FGBKKIPG@?$AAm?$AAr?$AA?9?$AAi?$AAn@ 00416ff4     mfcs140ud:nolib.obj
 0002:00004000       ??_C@_1M@NDBPDDAL@?$AAm?$AAs?$AA?9?$AAb?$AAn@ 00417000     mfcs140ud:nolib.obj
 0002:0000400c       ??_C@_1M@OPIHOOPI@?$AAm?$AAs?$AA?9?$AAm?$AAy@ 0041700c     mfcs140ud:nolib.obj
 0002:00004018       ??_C@_1M@PPDBCNFM@?$AAm?$AAt?$AA?9?$AAm?$AAt@ 00417018     mfcs140ud:nolib.obj
 0002:00004024       ??_C@_1M@KDJDKMDD@?$AAn?$AAb?$AA?9?$AAn?$AAo@ 00417024     mfcs140ud:nolib.obj
 0002:00004030       ??_C@_1M@KFCFLMJP@?$AAn?$AAl?$AA?9?$AAb?$AAe@ 00417030     mfcs140ud:nolib.obj
 0002:0000403c       ??_C@_1M@KPOPDDGO@?$AAn?$AAl?$AA?9?$AAn?$AAl@ 0041703c     mfcs140ud:nolib.obj
 0002:00004048       ??_C@_1M@LJKPEMLN@?$AAn?$AAn?$AA?9?$AAn?$AAo@ 00417048     mfcs140ud:nolib.obj
 0002:00004054       ??_C@_1M@BDGHHBFL@?$AAn?$AAs?$AA?9?$AAz?$AAa@ 00417054     mfcs140ud:nolib.obj
 0002:00004060       ??_C@_1M@IDEHOAP@?$AAp?$AAa?$AA?9?$AAi?$AAn@ 00417060     mfcs140ud:nolib.obj
 0002:0000406c       ??_C@_1M@HDBKGOGH@?$AAp?$AAl?$AA?9?$AAp?$AAl@ 0041706c     mfcs140ud:nolib.obj
 0002:00004078       ??_C@_1M@LJLLCMEH@?$AAp?$AAt?$AA?9?$AAb?$AAr@ 00417078     mfcs140ud:nolib.obj
 0002:00004084       ??_C@_1M@NCMONAAL@?$AAp?$AAt?$AA?9?$AAp?$AAt@ 00417084     mfcs140ud:nolib.obj
 0002:00004090       ??_C@_1O@EAKMAJDN@?$AAq?$AAu?$AAz?$AA?9?$AAb?$AAo@ 00417090     mfcs140ud:nolib.obj
 0002:000040a0       ??_C@_1O@BHHPIGDN@?$AAq?$AAu?$AAz?$AA?9?$AAe?$AAc@ 004170a0     mfcs140ud:nolib.obj
 0002:000040b0       ??_C@_1O@GBAPEKMJ@?$AAq?$AAu?$AAz?$AA?9?$AAp?$AAe@ 004170b0     mfcs140ud:nolib.obj
 0002:000040c0       ??_C@_1M@CLGLEFBO@?$AAr?$AAo?$AA?9?$AAr?$AAo@ 004170c0     mfcs140ud:nolib.obj
 0002:000040cc       ??_C@_1M@CEEDODME@?$AAr?$AAu?$AA?9?$AAr?$AAu@ 004170cc     mfcs140ud:nolib.obj
 0002:000040d8       ??_C@_1M@HPKKKMPP@?$AAs?$AAa?$AA?9?$AAi?$AAn@ 004170d8     mfcs140ud:nolib.obj
 0002:000040e4       ??_C@_1M@BKMAIGOJ@?$AAs?$AAe?$AA?9?$AAf?$AAi@ 004170e4     mfcs140ud:nolib.obj
 0002:000040f0       ??_C@_1M@NDPIFLFI@?$AAs?$AAe?$AA?9?$AAn?$AAo@ 004170f0     mfcs140ud:nolib.obj
 0002:000040fc       ??_C@_1M@DANKKHJ@?$AAs?$AAe?$AA?9?$AAs?$AAe@ 004170fc     mfcs140ud:nolib.obj
 0002:00004108       ??_C@_1M@PNBLONPJ@?$AAs?$AAk?$AA?9?$AAs?$AAk@ 00417108     mfcs140ud:nolib.obj
 0002:00004114       ??_C@_1M@LFMODOAL@?$AAs?$AAl?$AA?9?$AAs?$AAi@ 00417114     mfcs140ud:nolib.obj
 0002:00004120       ??_C@_1O@DFKOMPG@?$AAs?$AAm?$AAa?$AA?9?$AAn?$AAo@ 00417120     mfcs140ud:nolib.obj
 0002:00004130       ??_C@_1O@NDKPBNNH@?$AAs?$AAm?$AAa?$AA?9?$AAs?$AAe@ 00417130     mfcs140ud:nolib.obj
 0002:00004140       ??_C@_1O@PLLKBHAB@?$AAs?$AAm?$AAj?$AA?9?$AAn?$AAo@ 00417140     mfcs140ud:nolib.obj
 0002:00004150       ??_C@_1O@CLEPOGCA@?$AAs?$AAm?$AAj?$AA?9?$AAs?$AAe@ 00417150     mfcs140ud:nolib.obj
 0002:00004160       ??_C@_1O@DLGJGKMK@?$AAs?$AAm?$AAn?$AA?9?$AAf?$AAi@ 00417160     mfcs140ud:nolib.obj
 0002:00004170       ??_C@_1O@OJDJGAJC@?$AAs?$AAm?$AAs?$AA?9?$AAf?$AAi@ 00417170     mfcs140ud:nolib.obj
 0002:00004180       ??_C@_1M@BOFOGHPB@?$AAs?$AAq?$AA?9?$AAa?$AAl@ 00417180     mfcs140ud:nolib.obj
 0002:0000418c       ??_C@_1BG@LJBBIPGB@?$AAs?$AAr?$AA?9?$AAb?$AAa?$AA?9?$AAc?$AAy?$AAr?$AAl@ 0041718c     mfcs140ud:nolib.obj
 0002:000041a4       ??_C@_1BG@JLBENFOE@?$AAs?$AAr?$AA?9?$AAb?$AAa?$AA?9?$AAl?$AAa?$AAt?$AAn@ 004171a4     mfcs140ud:nolib.obj
 0002:000041bc       ??_C@_1BG@KODPNHE@?$AAs?$AAr?$AA?9?$AAs?$AAp?$AA?9?$AAc?$AAy?$AAr?$AAl@ 004171bc     mfcs140ud:nolib.obj
 0002:000041d4       ??_C@_1BG@CIOGKHPB@?$AAs?$AAr?$AA?9?$AAs?$AAp?$AA?9?$AAl?$AAa?$AAt?$AAn@ 004171d4     mfcs140ud:nolib.obj
 0002:000041ec       ??_C@_1M@NGFJLMAC@?$AAs?$AAv?$AA?9?$AAf?$AAi@ 004171ec     mfcs140ud:nolib.obj
 0002:000041f8       ??_C@_1M@MPJEJAJC@?$AAs?$AAv?$AA?9?$AAs?$AAe@ 004171f8     mfcs140ud:nolib.obj
 0002:00004204       ??_C@_1M@MPNDHLFK@?$AAs?$AAw?$AA?9?$AAk?$AAe@ 00417204     mfcs140ud:nolib.obj
 0002:00004210       ??_C@_1O@KOHBJJI@?$AAs?$AAy?$AAr?$AA?9?$AAs?$AAy@ 00417210     mfcs140ud:nolib.obj
 0002:00004220       ??_C@_1M@LDCEFHA@?$AAt?$AAa?$AA?9?$AAi?$AAn@ 00417220     mfcs140ud:nolib.obj
 0002:0000422c       ??_C@_1M@CNJOFAK@?$AAt?$AAe?$AA?9?$AAi?$AAn@ 0041722c     mfcs140ud:nolib.obj
 0002:00004238       ??_C@_1M@GNAECACD@?$AAt?$AAh?$AA?9?$AAt?$AAh@ 00417238     mfcs140ud:nolib.obj
 0002:00004244       ??_C@_1M@CHBIHOJO@?$AAt?$AAn?$AA?9?$AAz?$AAa@ 00417244     mfcs140ud:nolib.obj
 0002:00004250       ??_C@_1M@GCCMIGPJ@?$AAt?$AAr?$AA?9?$AAt?$AAr@ 00417250     mfcs140ud:nolib.obj
 0002:0000425c       ??_C@_1M@CELMCNBK@?$AAt?$AAt?$AA?9?$AAr?$AAu@ 0041725c     mfcs140ud:nolib.obj
 0002:00004268       ??_C@_1M@KLMCELGA@?$AAu?$AAk?$AA?9?$AAu?$AAa@ 00417268     mfcs140ud:nolib.obj
 0002:00004274       ??_C@_1M@EPAJJAJF@?$AAu?$AAr?$AA?9?$AAp?$AAk@ 00417274     mfcs140ud:nolib.obj
 0002:00004280       ??_C@_1BG@GEGPMCDJ@?$AAu?$AAz?$AA?9?$AAu?$AAz?$AA?9?$AAc?$AAy?$AAr?$AAl@ 00417280     mfcs140ud:nolib.obj
 0002:00004298       ??_C@_1BG@EGGKJILM@?$AAu?$AAz?$AA?9?$AAu?$AAz?$AA?9?$AAl?$AAa?$AAt?$AAn@ 00417298     mfcs140ud:nolib.obj
 0002:000042b0       ??_C@_1M@GFOCLFF@?$AAv?$AAi?$AA?9?$AAv?$AAn@ 004172b0     mfcs140ud:nolib.obj
 0002:000042bc       ??_C@_1M@CPAMEDFI@?$AAx?$AAh?$AA?9?$AAz?$AAa@ 004172bc     mfcs140ud:nolib.obj
 0002:000042c8       ??_C@_1O@EBKIFIGN@?$AAz?$AAh?$AA?9?$AAc?$AAh?$AAs@ 004172c8     mfcs140ud:nolib.obj
 0002:000042d8       ??_C@_1O@NMHPGANE@?$AAz?$AAh?$AA?9?$AAc?$AAh?$AAt@ 004172d8     mfcs140ud:nolib.obj
 0002:000042e8       ??_C@_1M@LPINJOMC@?$AAz?$AAh?$AA?9?$AAc?$AAn@ 004172e8     mfcs140ud:nolib.obj
 0002:000042f4       ??_C@_1M@OCJEJODD@?$AAz?$AAh?$AA?9?$AAh?$AAk@ 004172f4     mfcs140ud:nolib.obj
 0002:00004300       ??_C@_1M@DNDLJINH@?$AAz?$AAh?$AA?9?$AAm?$AAo@ 00417300     mfcs140ud:nolib.obj
 0002:0000430c       ??_C@_1M@MBFDNDND@?$AAz?$AAh?$AA?9?$AAs?$AAg@ 0041730c     mfcs140ud:nolib.obj
 0002:00004318       ??_C@_1M@IMEPLEPE@?$AAz?$AAh?$AA?9?$AAt?$AAw@ 00417318     mfcs140ud:nolib.obj
 0002:00004324       ??_C@_1M@BBGHNHJP@?$AAz?$AAu?$AA?9?$AAz?$AAa@ 00417324     mfcs140ud:nolib.obj
 0002:00004330       ??_C@_0O@JKAFBCMB@CreateActCtxW@ 00417330     mfcs140ud:nolib.obj
 0002:00004340       ??_C@_0P@CECBPMJL@ActivateActCtx@ 00417340     mfcs140ud:nolib.obj
 0002:00004350       ??_C@_0BB@NPIOCCPF@DeactivateActCtx@ 00417350     mfcs140ud:nolib.obj
 0002:00004364       ??_C@_0BJ@MGNMALIC@FindActCtxSectionStringW@ 00417364     mfcs140ud:nolib.obj
 0002:00004380       ??_C@_0N@IMINIHMJ@QueryActCtxW@ 00417380     mfcs140ud:nolib.obj
 0002:00004390       ??_C@_0BD@GIGEJCNH@GetModuleHandleExW@ 00417390     mfcs140ud:nolib.obj
 0002:000043a4       ??_C@_1BK@BFMCNHEO@?$AAC?$AAo?$AAm?$AAc?$AAt?$AAl?$AA3?$AA2?$AA?4?$AAd?$AAl?$AAl@ 004173a4     mfcs140ud:nolib.obj
 0002:000043c0       ?debugString@?4??IsolationAwarePrivatenPgViNgRzlnPgpgk@@9@4@4QBDB 004173c0     mfcs140ud:nolib.obj
 0002:000043fc       ?c@?1??WinbaseIsolationAwarePrivatetRgCebPnQQeRff_xReaRYQP_QYY@@9@4@4UIsolationAwarePrivate_pBAFGnAG_zBqHyr_vAsB@@B 004173fc     mfcs140ud:nolib.obj
 0002:0000440c       ??_C@_1BK@EJBALEBG@?$AAK?$AAe?$AAr?$AAn?$AAe?$AAl?$AA3?$AA2?$AA?4?$AAd?$AAl?$AAl@ 0041740c     mfcs140ud:nolib.obj
 0002:00004428       ??_C@_0N@HAOHNMDE@Kernel32?4dll@ 00417428     mfcs140ud:nolib.obj
 0002:00004438       ??_C@_1IM@JEAAKDGM@?$AAd?$AA?3?$AA?2?$AAa?$AAg?$AAe?$AAn?$AAt?$AA?2?$AA_?$AAw?$AAo?$AAr?$AAk?$AA?2@ 00417438     mfcs140ud:nolib.obj
 0002:000044c8       ??_C@_1IM@OHKLMBOP@?$AAd?$AA?3?$AA?2?$AAa?$AAg?$AAe?$AAn?$AAt?$AA?2?$AA_?$AAw?$AAo?$AAr?$AAk?$AA?2@ 004174c8     mfcs140ud:nolib.obj
 0002:00004558       ??_C@_1II@KMDJEMMF@?$AAd?$AA?3?$AA?2?$AAa?$AAg?$AAe?$AAn?$AAt?$AA?2?$AA_?$AAw?$AAo?$AAr?$AAk?$AA?2@ 00417558     mfcs140ud:nolib.obj
 0002:000045e0       ??_C@_1JA@IBHBDEKO@?$AAd?$AA?3?$AA?2?$AAa?$AAg?$AAe?$AAn?$AAt?$AA?2?$AA_?$AAw?$AAo?$AAr?$AAk?$AA?2@ 004175e0     mfcs140ud:nolib.obj
 0002:00004670       ??_C@_1IK@PGHGFEHN@?$AAd?$AA?3?$AA?2?$AAa?$AAg?$AAe?$AAn?$AAt?$AA?2?$AA_?$AAw?$AAo?$AAr?$AAk?$AA?2@ 00417670     mfcs140ud:nolib.obj
 0002:00004700       ??_C@_0EF@IIAHLIBI@d?3?2agent?2_work?26?2s?2src?2vctools?2@ 00417700     mfcs140ud:nolib.obj
 0002:00004748       ??_C@_1II@CEOHLLHG@?$AAd?$AA?3?$AA?2?$AAa?$AAg?$AAe?$AAn?$AAt?$AA?2?$AA_?$AAw?$AAo?$AAr?$AAk?$AA?2@ 00417748     mfcs140ud:nolib.obj
 0002:000047d0       ??_C@_1JC@HPEENDGL@?$AAd?$AA?3?$AA?2?$AAa?$AAg?$AAe?$AAn?$AAt?$AA?2?$AA_?$AAw?$AAo?$AAr?$AAk?$AA?2@ 004177d0     mfcs140ud:nolib.obj
 0002:00004868       ??_7type_info@@6B@         00417868     msvcrtd:std_type_info_static.obj
 0002:00004908       ??_C@_0NN@JMPELKLB@The?5value?5of?5ESP?5was?5not?5proper@ 00417908     msvcrtd:error.obj
 0002:000049e8       ??_C@_0BBN@ELNNILBE@A?5cast?5to?5a?5smaller?5data?5type?5h@ 004179e8     msvcrtd:error.obj
 0002:00004b08       ??_C@_0BN@BPOGFMJL@Stack?5memory?5was?5corrupted?$AN?6@ 00417b08     msvcrtd:error.obj
 0002:00004b28       ??_C@_0DG@DAJCDLPN@A?5local?5variable?5was?5used?5befor@ 00417b28     msvcrtd:error.obj
 0002:00004b60       ??_C@_0CM@JMIDGKLA@Stack?5memory?5around?5_alloca?5was@ 00417b60     msvcrtd:error.obj
 0002:00004b8c       ??_C@_0BO@CHIONIOI@Unknown?5Runtime?5Check?5Error?$AN?6@ 00417b8c     msvcrtd:error.obj
 0002:00004bb0       ??_C@_1GM@CNOOJIHC@?$AAR?$AAu?$AAn?$AAt?$AAi?$AAm?$AAe?$AA?5?$AAC?$AAh?$AAe?$AAc?$AAk?$AA?5?$AAE@ 00417bb0     msvcrtd:error.obj
 0002:00004c20       ??_C@_1EA@NFKNIFJP@?$AAR?$AAu?$AAn?$AA?9?$AAT?$AAi?$AAm?$AAe?$AA?5?$AAC?$AAh?$AAe?$AAc?$AAk?$AA?5@ 00417c20     msvcrtd:error.obj
 0002:00004c60       ??_C@_0BB@PFFGGCJP@Unknown?5Filename@ 00417c60     msvcrtd:error.obj
 0002:00004c74       ??_C@_0BE@GNBOBNCK@Unknown?5Module?5Name@ 00417c74     msvcrtd:error.obj
 0002:00004c88       ??_C@_0CA@IODNCDPG@Run?9Time?5Check?5Failure?5?$CD?$CFd?5?9?5?$CFs@ 00417c88     msvcrtd:error.obj
 0002:00004ca8       ??_C@_0CG@IAFNJNEE@Stack?5corrupted?5near?5unknown?5va@ 00417ca8     msvcrtd:error.obj
 0002:00004cd0       ??_C@_05MKKEDADM@?$CF?42X?5@ 00417cd0     msvcrtd:error.obj
 0002:00004cd8       ??_C@_0EJ@LJKNEOLN@Stack?5area?5around?5_alloca?5memor@ 00417cd8     msvcrtd:error.obj
 0002:00004d24       ??_C@_01EEMJAFIK@?6@       00417d24     msvcrtd:error.obj
 0002:00004d28       ??_C@_02LLMPMKNF@?$DO?5@   00417d28     msvcrtd:error.obj
 0002:00004d2c       ??_C@_08OMAHNMHJ@?6Data?3?5?$DM@ 00417d2c     msvcrtd:error.obj
 0002:00004d38       ??_C@_0CK@DKGBICFE@?6Allocation?5number?5within?5this?5@ 00417d38     msvcrtd:error.obj
 0002:00004d64       ??_C@_07DFDJCKFN@?6Size?3?5@ 00417d64     msvcrtd:error.obj
 0002:00004d6c       ??_C@_0N@MHFFIMFG@?6Address?3?50x@ 00417d6c     msvcrtd:error.obj
 0002:00004d80       ??_C@_0EI@CLEPFNGI@Stack?5area?5around?5_alloca?5memor@ 00417d80     msvcrtd:error.obj
 0002:00004dc8       ??_C@_0BK@ODNDAGKB@?$CFs?$CFs?$CFp?$CFs?$CFzd?$CFs?$CFd?$CFs?$CFs?$CFs?$CFs?$CFs@ 00417dc8     msvcrtd:error.obj
 0002:00004de4       ??_C@_0DE@OHJBPMBP@A?5variable?5is?5being?5used?5withou@ 00417de4     msvcrtd:error.obj
 0002:00004e18       ??_C@_1EC@JIJBPKFM@?$AAa?$AAp?$AAi?$AA?9?$AAm?$AAs?$AA?9?$AAw?$AAi?$AAn?$AA?9?$AAc?$AAo?$AAr?$AAe@ 00417e18     msvcrtd:thread_safe_statics.obj
 0002:00004e5c       ??_C@_1BK@MGMFAEKH@?$AAk?$AAe?$AAr?$AAn?$AAe?$AAl?$AA3?$AA2?$AA?4?$AAd?$AAl?$AAl@ 00417e5c     msvcrtd:thread_safe_statics.obj
 0002:00004e78       ??_C@_0BJ@JEBJOJFJ@SleepConditionVariableCS@ 00417e78     msvcrtd:thread_safe_statics.obj
 0002:00004e94       ??_C@_0BJ@PGPPEPCC@WakeAllConditionVariable@ 00417e94     msvcrtd:thread_safe_statics.obj
 0002:00004eb0       ??_C@_1JM@LDMAFGM@?$AAd?$AA?3?$AA?2?$AAa?$AAg?$AAe?$AAn?$AAt?$AA?2?$AA_?$AAw?$AAo?$AAr?$AAk?$AA?2@ 00417eb0     msvcrtd:thread_safe_statics.obj
 0002:00004f68       ??_C@_0BJ@HEGAHDFO@Stack?5pointer?5corruption@ 00417f68     msvcrtd:userapi.obj
 0002:00004f84       ??_C@_0CK@FEGOIOPB@Cast?5to?5smaller?5type?5causing?5lo@ 00417f84     msvcrtd:userapi.obj
 0002:00004fb0       ??_C@_0BI@CIGMDCBH@Stack?5memory?5corruption@ 00417fb0     msvcrtd:userapi.obj
 0002:00004fc8       ??_C@_0CK@CNLNOEPB@Local?5variable?5used?5before?5init@ 00417fc8     msvcrtd:userapi.obj
 0002:00004ff4       ??_C@_0BP@OGBCLIBO@Stack?5around?5_alloca?5corrupted@ 00417ff4     msvcrtd:userapi.obj
 0002:00005060       ??_C@_1EI@MLPKHBGE@?$AAa?$AAp?$AAi?$AA?9?$AAm?$AAs?$AA?9?$AAw?$AAi?$AAn?$AA?9?$AAc?$AAo?$AAr?$AAe@ 00418060     msvcrtd:pdblkup.obj
 0002:000050a8       ??_C@_1BK@JHLNAEJL@?$AAa?$AAd?$AAv?$AAa?$AAp?$AAi?$AA3?$AA2?$AA?4?$AAd?$AAl?$AAl@ 004180a8     msvcrtd:pdblkup.obj
 0002:000050c4       ??_C@_0O@COHOBMLB@RegOpenKeyExW@ 004180c4     msvcrtd:pdblkup.obj
 0002:000050d4       ??_C@_0BB@GLNAEDBD@RegQueryValueExW@ 004180d4     msvcrtd:pdblkup.obj
 0002:000050e8       ??_C@_0M@HLOHPNFA@RegCloseKey@ 004180e8     msvcrtd:pdblkup.obj
 0002:000050f8       ??_C@_1HE@EBEAGLFB@?$AAS?$AAO?$AAF?$AAT?$AAW?$AAA?$AAR?$AAE?$AA?2?$AAW?$AAo?$AAw?$AA6?$AA4?$AA3@ 004180f8     msvcrtd:pdblkup.obj
 0002:0000516c       ??_C@_1BG@EABPBLLF@?$AAP?$AAr?$AAo?$AAd?$AAu?$AAc?$AAt?$AAD?$AAi?$AAr@ 0041816c     msvcrtd:pdblkup.obj
 0002:000051a0       ??_C@_1BC@JINFINNJ@?$AAM?$AAS?$AAP?$AAD?$AAB?$AA1?$AA4?$AA0@ 004181a0     msvcrtd:pdblkup.obj
 0002:000051b4       ??_C@_0BB@KCIACLNC@PDBOpenValidate5@ 004181b4     msvcrtd:pdblkup.obj
 0002:000051c8       ??_C@_01KDCPPGHE@r@        004181c8     msvcrtd:pdblkup.obj
 0002:000051cc       _GUID_ATLVer30             004181cc     atls:atlbase.obj
 0002:000051dc       _GUID_ATLVer70             004181dc     atls:atlbase.obj
 0002:000051ec       _GUID_ATLVer100            004181ec     atls:atlbase.obj
 0002:000051fc       _GUID_ATLVer110            004181fc     atls:atlbase.obj
 0002:00005210       ??_C@_1IC@ONKHOIDK@?$AAE?$AAR?$AAR?$AAO?$AAR?$AA?5?$AA?3?$AA?5?$AAU?$AAn?$AAa?$AAb?$AAl?$AAe?$AA?5@ 00418210     atls:atlbase.obj
 0002:00005298       ??_C@_0EI@EGMNDBAC@d?3?2agent?2_work?26?2s?2src?2vctools?2@ 00418298     mfcs140ud:appmodul.obj
 0002:00005338       __load_config_used         00418338     msvcrtd:loadcfg.obj
 0002:000053dc       __tls_used                 004183dc     msvcrtd:tlssup.obj
 0002:000053f4       ??_R1A@?0A@EA@CObject@@8   004183f4     mcf6.obj
 0002:00005410       ??_R3CObject@@8            00418410     mcf6.obj
 0002:00005420       ??_R2CObject@@8            00418420     mcf6.obj
 0002:00005428       ??_R1A@?0A@EA@CCmdTarget@@8 00418428     mcf6.obj
 0002:00005444       ??_R3CCmdTarget@@8         00418444     mcf6.obj
 0002:00005454       ??_R2CCmdTarget@@8         00418454     mcf6.obj
 0002:00005460       ??_R4Cmcf6App@@6B@         00418460     mcf6.obj
 0002:00005474       ??_R3Cmcf6App@@8           00418474     mcf6.obj
 0002:00005484       ??_R2Cmcf6App@@8           00418484     mcf6.obj
 0002:0000549c       ??_R1A@?0A@EA@Cmcf6App@@8  0041849c     mcf6.obj
 0002:000054b8       ??_R1A@?0A@EA@CWinApp@@8   004184b8     mcf6.obj
 0002:000054d4       ??_R3CWinApp@@8            004184d4     mcf6.obj
 0002:000054e4       ??_R2CWinApp@@8            004184e4     mcf6.obj
 0002:000054f8       ??_R1A@?0A@EA@CWinThread@@8 004184f8     mcf6.obj
 0002:00005514       ??_R3CWinThread@@8         00418514     mcf6.obj
 0002:00005524       ??_R2CWinThread@@8         00418524     mcf6.obj
 0002:00005534       ??_R1A@?0A@EA@CDialog@@8   00418534     mcf6Dlg.obj
 0002:00005550       ??_R3CDialog@@8            00418550     mcf6Dlg.obj
 0002:00005560       ??_R2CDialog@@8            00418560     mcf6Dlg.obj
 0002:00005574       ??_R1A@?0A@EA@CWnd@@8      00418574     mcf6Dlg.obj
 0002:00005590       ??_R3CWnd@@8               00418590     mcf6Dlg.obj
 0002:000055a0       ??_R2CWnd@@8               004185a0     mcf6Dlg.obj
 0002:000055b0       ??_R4Cmcf6Dlg@@6B@         004185b0     mcf6Dlg.obj
 0002:000055c4       ??_R3Cmcf6Dlg@@8           004185c4     mcf6Dlg.obj
 0002:000055d4       ??_R2Cmcf6Dlg@@8           004185d4     mcf6Dlg.obj
 0002:000055ec       ??_R1A@?0A@EA@Cmcf6Dlg@@8  004185ec     mcf6Dlg.obj
 0002:00005608       ??_R4CAboutDlg@@6B@        00418608     mcf6Dlg.obj
 0002:0000561c       ??_R3CAboutDlg@@8          0041861c     mcf6Dlg.obj
 0002:0000562c       ??_R2CAboutDlg@@8          0041862c     mcf6Dlg.obj
 0002:00005644       ??_R1A@?0A@EA@CAboutDlg@@8 00418644     mcf6Dlg.obj
 0002:00005660       ??_R4CWin32Heap@ATL@@6B@   00418660     stdafx.obj
 0002:00005674       ??_R3CWin32Heap@ATL@@8     00418674     stdafx.obj
 0002:00005684       ??_R2CWin32Heap@ATL@@8     00418684     stdafx.obj
 0002:00005690       ??_R1A@?0A@EA@CWin32Heap@ATL@@8 00418690     stdafx.obj
 0002:000056ac       ??_R1A@?0A@EA@IAtlMemMgr@ATL@@8 004186ac     stdafx.obj
 0002:000056c8       ??_R3IAtlMemMgr@ATL@@8     004186c8     stdafx.obj
 0002:000056d8       ??_R2IAtlMemMgr@ATL@@8     004186d8     stdafx.obj
 0002:000056e0       ??_R1A@?0A@EA@IAtlStringMgr@ATL@@8 004186e0     stdafx.obj
 0002:000056fc       ??_R3IAtlStringMgr@ATL@@8  004186fc     stdafx.obj
 0002:0000570c       ??_R2IAtlStringMgr@ATL@@8  0041870c     stdafx.obj
 0002:00005714       ??_R4CAtlStringMgr@ATL@@6B@ 00418714     stdafx.obj
 0002:00005728       ??_R3CAtlStringMgr@ATL@@8  00418728     stdafx.obj
 0002:00005738       ??_R2CAtlStringMgr@ATL@@8  00418738     stdafx.obj
 0002:00005744       ??_R1A@?0A@EA@CAtlStringMgr@ATL@@8 00418744     stdafx.obj
 0002:00005760       ??_R4type_info@@6B@        00418760     msvcrtd:std_type_info_static.obj
 0002:00005774       ??_R3type_info@@8          00418774     msvcrtd:std_type_info_static.obj
 0002:00005784       ??_R2type_info@@8          00418784     msvcrtd:std_type_info_static.obj
 0002:0000578c       ??_R1A@?0A@EA@type_info@@8 0041878c     msvcrtd:std_type_info_static.obj
 0002:000057b0       ___safe_se_handler_table   004187b0     <linker-defined>
 0002:00005c38       ___rtc_iaa                 00418c38     msvcrtd:initsect.obj
 0002:00005c58       ___rtc_izz                 00418c58     msvcrtd:initsect.obj
 0002:00005c5c       ___rtc_taa                 00418c5c     msvcrtd:initsect.obj
 0002:00005c7c       ___rtc_tzz                 00418c7c     msvcrtd:initsect.obj
 0002:00005c80       __tls_start                00418c80     msvcrtd:tlssup.obj
 0002:00005c84       __Init_thread_epoch        00418c84     msvcrtd:thread_safe_statics.obj
 0002:00005c88       __tls_end                  00418c88     msvcrtd:tlssup.obj
 0002:00006264       ___pobjMapEntryFirst       00419264     stdafx.obj
 0002:00006268       ___pobjMapEntryLast        00419268     stdafx.obj
 0002:0000626c       __IMPORT_DESCRIPTOR_wpcap  0041926c     wpcap:wpcap.dll
 0002:00006280       __IMPORT_DESCRIPTOR_WS2_32 00419280     ws2_32:WS2_32.dll
 0002:00006294       __IMPORT_DESCRIPTOR_mfc140ud 00419294     mfc140ud:mfc140ud.dll
 0002:000062a8       __IMPORT_DESCRIPTOR_KERNEL32 004192a8     kernel32:KERNEL32.dll
 0002:000062bc       __IMPORT_DESCRIPTOR_USER32 004192bc     user32:USER32.dll
 0002:000062d0       __IMPORT_DESCRIPTOR_COMCTL32 004192d0     comctl32:COMCTL32.dll
 0002:000062e4       __IMPORT_DESCRIPTOR_OLEAUT32 004192e4     oleaut32:OLEAUT32.dll
 0002:000062f8       __IMPORT_DESCRIPTOR_VCRUNTIME140D 004192f8     vcruntimed:VCRUNTIME140D.dll
 0002:0000630c       __IMPORT_DESCRIPTOR_ucrtbased 0041930c     ucrtd:ucrtbased.dll
 0002:00006320       __NULL_IMPORT_DESCRIPTOR   00419320     wpcap:wpcap.dll
 0003:00000000       __pIncludeInitManaged      0041b000     stdafx.obj
 0003:00000004       ?m_nCategory@CTrace@ATL@@1IA 0041b004     stdafx.obj
 0003:00000008       ?__LINE__Var@?0??AtlWinModuleInit@ATL@@YGJPAU_ATL_WIN_MODULE70@2@@Z@4JA 0041b008     stdafx.obj
 0003:0000000c       _WinbaseIsolationAwarePrivateT_UnPgpgk 0041b00c     mfcs140ud:nolib.obj
 0003:00000010       ___scrt_native_dllmain_reason 0041b010     msvcrtd:utility.obj
 0003:00000020       ___security_cookie_complement 0041b020     msvcrtd:gs_cookie.obj
 0003:00000024       ___security_cookie         0041b024     msvcrtd:gs_cookie.obj
 0003:00000028       ?_RTC_ErrorLevels@@3PAHA   0041b028     msvcrtd:error.obj
 0003:0000003c       __Init_global_epoch        0041b03c     msvcrtd:thread_safe_statics.obj
 0003:00000040       ___scrt_default_matherr    0041b040     msvcrtd:matherr.obj
 0003:00000044       ___isa_enabled             0041b044     msvcrtd:cpu_disp.obj
 0003:00000048       ___scrt_ucrt_dll_is_in_use 0041b048     msvcrtd:ucrt_stubs.obj
 0003:0000004c       ??_R0?AVCObject@@@8        0041b04c     mcf6.obj
 0003:00000064       ??_R0?AVCCmdTarget@@@8     0041b064     mcf6.obj
 0003:00000080       ??_R0?AVCmcf6App@@@8       0041b080     mcf6.obj
 0003:00000098       ??_R0?AVCWinApp@@@8        0041b098     mcf6.obj
 0003:000000b0       ??_R0?AVCWinThread@@@8     0041b0b0     mcf6.obj
 0003:000000cc       ??_R0?AVCDialog@@@8        0041b0cc     mcf6Dlg.obj
 0003:000000e4       ??_R0?AVCWnd@@@8           0041b0e4     mcf6Dlg.obj
 0003:000000f8       ??_R0?AVCmcf6Dlg@@@8       0041b0f8     mcf6Dlg.obj
 0003:00000110       ??_R0?AVCAboutDlg@@@8      0041b110     mcf6Dlg.obj
 0003:00000128       ??_R0?AVCWin32Heap@ATL@@@8 0041b128     stdafx.obj
 0003:00000148       ??_R0?AUIAtlMemMgr@ATL@@@8 0041b148     stdafx.obj
 0003:00000168       ??_R0?AUIAtlStringMgr@ATL@@@8 0041b168     stdafx.obj
 0003:00000188       ??_R0?AVCAtlStringMgr@ATL@@@8 0041b188     stdafx.obj
 0003:000001a8       ??_R0?AVtype_info@@@8      0041b1a8     msvcrtd:std_type_info_static.obj
 0003:000001c0       ?theApp@@3VCmcf6App@@A     0041b1c0     mcf6.obj
 0003:0000028c       ?atlTraceException@ATL@@3V?$CTraceCategoryEx@$0CAAA@$0A@@1@A 0041b28c     mcf6Dlg.obj
 0003:00000290       ?atlTraceString@ATL@@3V?$CTraceCategoryEx@$0CAAAA@$0A@@1@A 0041b290     mcf6Dlg.obj
 0003:00000294       ?m_nLastCategory@CTrace@ATL@@1IA 0041b294     mcf6Dlg.obj
 0003:00000298       ?m_nMap@CTrace@ATL@@1PAUCategoryMap@12@A 0041b298     mcf6Dlg.obj
 0003:00002318       ?_pPerfRegFunc@ATL@@3P6AJPAUHINSTANCE__@@@ZA 0041d318     stdafx.obj
 0003:0000231c       ?_pPerfUnRegFunc@ATL@@3P6AJXZA 0041d31c     stdafx.obj
 0003:00002320       ?_AtlRegisterPerUser@ATL@@3_NA 0041d320     stdafx.obj
 0003:00002324       ?_pAtlModule@ATL@@3PAVCAtlModule@1@A 0041d324     stdafx.obj
 0003:00002328       ?_pModule@ATL@@3PAVCComModule@1@A 0041d328     stdafx.obj
 0003:0000232c       ?_pAtlAutoThreadModule@ATL@@3PAUIAtlAutoThreadModule@1@A 0041d32c     stdafx.obj
 0003:00002330       ___@@_PchSym_@00@UfhvihUzwnrmrhgizgliUwvhpglkUKluKrlKqkKluKrrKqonuxLdrmkxzkKlsKomKqyKlsKooKqnKluKqsKruKltKrlKpxKluKqqKprKlkKonKrrhmruuviKlkKonKrqUnxuGUwvyftUhgwzucOlyq@4B2008FD98C1DD4 0041d330     stdafx.obj
 0003:00002338       ?_OptionsStorage@?1??__local_stdio_printf_options@@9@4_KA 0041d338     stdafx.obj
 0003:00002340       ?atlTraceGeneral@ATL@@3V?$CTraceCategoryEx@$00$0A@@1@A 0041d340     stdafx.obj
 0003:00002344       ?atlTraceCOM@ATL@@3V?$CTraceCategoryEx@$01$0A@@1@A 0041d344     stdafx.obj
 0003:00002348       ?atlTraceQI@ATL@@3V?$CTraceCategoryEx@$03$0A@@1@A 0041d348     stdafx.obj
 0003:0000234c       ?atlTraceRegistrar@ATL@@3V?$CTraceCategoryEx@$07$0A@@1@A 0041d34c     stdafx.obj
 0003:00002350       ?atlTraceRefcount@ATL@@3V?$CTraceCategoryEx@$0BA@$0A@@1@A 0041d350     stdafx.obj
 0003:00002354       ?atlTraceWindowing@ATL@@3V?$CTraceCategoryEx@$0CA@$0A@@1@A 0041d354     stdafx.obj
 0003:00002358       ?atlTraceControls@ATL@@3V?$CTraceCategoryEx@$0EA@$0A@@1@A 0041d358     stdafx.obj
 0003:0000235c       ?atlTraceHosting@ATL@@3V?$CTraceCategoryEx@$0IA@$0A@@1@A 0041d35c     stdafx.obj
 0003:00002360       ?atlTraceDBClient@ATL@@3V?$CTraceCategoryEx@$0BAA@$0A@@1@A 0041d360     stdafx.obj
 0003:00002364       ?atlTraceDBProvider@ATL@@3V?$CTraceCategoryEx@$0CAA@$0A@@1@A 0041d364     stdafx.obj
 0003:00002368       ?atlTraceSnapin@ATL@@3V?$CTraceCategoryEx@$0EAA@$0A@@1@A 0041d368     stdafx.obj
 0003:0000236c       ?atlTraceNotImpl@ATL@@3V?$CTraceCategoryEx@$0IAA@$0A@@1@A 0041d36c     stdafx.obj
 0003:00002370       ?atlTraceAllocation@ATL@@3V?$CTraceCategoryEx@$0BAAA@$0A@@1@A 0041d370     stdafx.obj
 0003:00002374       ?atlTraceTime@ATL@@3V?$CTraceCategoryEx@$0EAAA@$0A@@1@A 0041d374     stdafx.obj
 0003:00002378       ?atlTraceCache@ATL@@3V?$CTraceCategoryEx@$0IAAA@$0A@@1@A 0041d378     stdafx.obj
 0003:0000237c       ?atlTraceStencil@ATL@@3V?$CTraceCategoryEx@$0BAAAA@$0A@@1@A 0041d37c     stdafx.obj
 0003:00002380       ?atlTraceMap@ATL@@3V?$CTraceCategoryEx@$0EAAAA@$0A@@1@A 0041d380     stdafx.obj
 0003:00002384       ?atlTraceUtil@ATL@@3V?$CTraceCategoryEx@$0IAAAA@$0A@@1@A 0041d384     stdafx.obj
 0003:00002388       ?atlTraceSecurity@ATL@@3V?$CTraceCategoryEx@$0BAAAAA@$0A@@1@A 0041d388     stdafx.obj
 0003:0000238c       ?atlTraceSync@ATL@@3V?$CTraceCategoryEx@$0CAAAAA@$0A@@1@A 0041d38c     stdafx.obj
 0003:00002390       ?atlTraceISAPI@ATL@@3V?$CTraceCategoryEx@$0EAAAAA@$0A@@1@A 0041d390     stdafx.obj
 0003:00002394       ?m_nLevel@CTrace@ATL@@1IA  0041d394     stdafx.obj
 0003:00002398       ?m_bInitFailed@CAtlBaseModule@ATL@@2_NA 0041d398     stdafx.obj
 0003:0000239c       ?_AtlComModule@ATL@@3VCAtlComModule@1@A 0041d39c     stdafx.obj
 0003:000023c4       ?_AtlWinModule@ATL@@3VCAtlWinModule@1@A 0041d3c4     stdafx.obj
 0003:000023f0       ?strHeap@?1??GetInstance@CAtlStringMgr@ATL@@SAPAUIAtlStringMgr@3@XZ@4VCWin32Heap@3@A 0041d3f0     stdafx.obj
 0003:000023fc       ?$TSS0@?1??GetInstance@CAtlStringMgr@ATL@@SAPAUIAtlStringMgr@3@XZ@4HA 0041d3fc     stdafx.obj
 0003:00002400       ?strMgr@?1??GetInstance@CAtlStringMgr@ATL@@SAPAUIAtlStringMgr@3@XZ@4V23@A 0041d400     stdafx.obj
 0003:0000241c       ?$TSS1@?1??GetInstance@CAtlStringMgr@ATL@@SAPAUIAtlStringMgr@3@XZ@4HA 0041d41c     stdafx.obj
 0003:00002420       ?InitializeCAtlStringMgr@ATLImplementationDetails@ATL@@3UCAtlStringMgrStaticInitializer@12@A 0041d420     stdafx.obj
 0003:00002424       _IsolationAwarePrivateT_SqbjaYRiRY 0041d424     mfcs140ud:nolib.obj
 0003:00002428       _IsolationAwarePrivateT_SAbnPgpgk 0041d428     mfcs140ud:nolib.obj
 0003:0000242c       _WinbaseIsolationAwarePrivateT_SpeRNgRQnPgpgk 0041d42c     mfcs140ud:nolib.obj
 0003:00002430       _WinbaseIsolationAwarePrivateT_SpYRNahcpNYYRQ 0041d430     mfcs140ud:nolib.obj
 0003:00002434       __afxForceEXCLUDE          0041d434     mfcs140ud:nolib.obj
 0003:00002438       ?s_pfn@?1??IsolationAwareCreateActCtxW@@9@4@4P6GPAXPBUtagACTCTXW@@@ZA 0041d438     mfcs140ud:nolib.obj
 0003:0000243c       ?s_pfn@?1??IsolationAwareActivateActCtx@@9@8@4P6GHPAXPAK@ZA 0041d43c     mfcs140ud:nolib.obj
 0003:00002440       ?s_pfn@?1??IsolationAwareDeactivateActCtx@@9@8@4P6GHKK@ZA 0041d440     mfcs140ud:nolib.obj
 0003:00002444       ?s_pfn@?1??IsolationAwareFindActCtxSectionStringW@@9@20@4P6GHKPBU_GUID@@KPB_WPAUtagACTCTX_SECTION_KEYED_DATA@@@ZA 0041d444     mfcs140ud:nolib.obj
 0003:00002448       ?s_pfn@?1??IsolationAwareQueryActCtxW@@9@28@4P6GHKPAX0K0KPAK@ZA 0041d448     mfcs140ud:nolib.obj
 0003:0000244c       ?m@?1??WinbaseIsolationAwarePrivatetRgCebPnQQeRff_xReaRYQP_QYY@@9@4@4UIsolationAwarePrivate_zHGnoyr_zBqHyr_vAsB@@A 0041d44c     mfcs140ud:nolib.obj
 0003:00002450       ??_B?1??GetInstance@CAtlStringMgr@ATL@@SAPAUIAtlStringMgr@2@XZ@51 0041d450     mfcs140ud:nolib.obj
 0003:00002454       __afxForceSTDAFX           0041d454     mfcs140ud:stdafx.obj
 0003:00002458       ___scrt_current_native_startup_state 0041d458     msvcrtd:utility.obj
 0003:0000245c       ___scrt_native_startup_lock 0041d45c     msvcrtd:utility.obj
 0003:000024a8       __tls_index                0041d4a8     msvcrtd:tlssup.obj
 0003:000024b0       ?__type_info_root_node@@3U__type_info_node@@A 0041d4b0     msvcrtd:tncleanup.obj
 0003:000024b8       ?_OptionsStorage@?1??__local_stdio_scanf_options@@9@4_KA 0041d4b8     msvcrtd:default_local_stdio_options.obj
 0003:000024c0       ___scrt_debugger_hook_flag 0041d4c0     msvcrtd:utility_desktop.obj
 0003:000024c4       ___isa_available           0041d4c4     msvcrtd:cpu_disp.obj
 0003:000024c8       ___favor                   0041d4c8     msvcrtd:cpu_disp.obj
 0003:000027fc       ?_AtlBaseModule@ATL@@3VCAtlBaseModule@1@A 0041d7fc     atls:atlbase.obj
 0003:00002834       ___@@_PchSym_@00@UztvmgUPdlipUGUhUrmgvinvwrzgvUexgllohUzgohOmzgrevkilqPBACIAJCBDBUlyqiUcIGUhgwzucOlyq@4B2008FD98C1DD4 0041d834     atls:stdafx.obj
 0003:00002838       ?_afxInitAppState@@3DA     0041d838     mfcs140ud:appmodul.obj
 0003:0000283c       ___dyn_tls_dtor_callback   0041d83c     <common>
 0003:00002840       ___dyn_tls_init_callback   0041d840     <common>

 entry point at        0001:0000d6a0

 Static symbols

 0002:fffed000       ?atlTraceException$initializer$@ATL@@3P6AXXZA 00400000     stdafx.obj
 0002:fffed000       ?atlTraceString$initializer$@ATL@@3P6AXXZA 00400000     stdafx.obj
 0002:fffed000       ?atlTraceException$initializer$@ATL@@3P6AXXZA 00400000     utilities.obj
 0002:fffed000       __guard_fids_??__E_AtlBaseModule@ATL@@YAXXZ 00400000     atls:atlbase.obj
 0002:fffed000       __guard_fids__             00400000     atls:atlbase.obj
 0000:fffd9000       .debug$S                   00400000     mfc140ud:mfc140ud.dll
 0000:fffd9000       .debug$S                   00400000     mfc140ud:mfc140ud.dll
 0000:fffd9000       .debug$S                   00400000     mfc140ud:mfc140ud.dll
 0000:fffd9000       .debug$S                   00400000     mfc140ud:mfc140ud.dll
 0000:fffd9000       .debug$S                   00400000     mfc140ud:mfc140ud.dll
 0000:fffd9000       .debug$S                   00400000     mfc140ud:mfc140ud.dll
 0000:fffd9000       .debug$S                   00400000     mfc140ud:mfc140ud.dll
 0000:fffd9000       .debug$S                   00400000     mfc140ud:mfc140ud.dll
 0000:fffd9000       .debug$S                   00400000     mfc140ud:mfc140ud.dll
 0000:fffd9000       .debug$S                   00400000     mfc140ud:mfc140ud.dll
 0000:fffd9000       .debug$S                   00400000     mfc140ud:mfc140ud.dll
 0000:fffd9000       .debug$S                   00400000     mfc140ud:mfc140ud.dll
 0000:fffd9000       .debug$S                   00400000     mfc140ud:mfc140ud.dll
 0000:fffd9000       .debug$S                   00400000     mfc140ud:mfc140ud.dll
 0000:fffd9000       .debug$S                   00400000     mfc140ud:mfc140ud.dll
 0000:fffd9000       .debug$S                   00400000     mfc140ud:mfc140ud.dll
 0000:fffd9000       .debug$S                   00400000     mfc140ud:mfc140ud.dll
 0000:fffd9000       .debug$S                   00400000     mfc140ud:mfc140ud.dll
 0000:fffd9000       .debug$S                   00400000     mfc140ud:mfc140ud.dll
 0000:fffd9000       .debug$S                   00400000     mfc140ud:mfc140ud.dll
 0000:fffd9000       .debug$S                   00400000     mfc140ud:mfc140ud.dll
 0000:fffd9000       .debug$S                   00400000     mfc140ud:mfc140ud.dll
 0000:fffd9000       .debug$S                   00400000     mfc140ud:mfc140ud.dll
 0000:fffd9000       .debug$S                   00400000     mfc140ud:mfc140ud.dll
 0000:fffd9000       .debug$S                   00400000     mfc140ud:mfc140ud.dll
 0000:fffd9000       .debug$S                   00400000     mfc140ud:mfc140ud.dll
 0000:fffd9000       .debug$S                   00400000     mfc140ud:mfc140ud.dll
 0000:fffd9000       .debug$S                   00400000     mfc140ud:mfc140ud.dll
 0000:fffd9000       .debug$S                   00400000     mfc140ud:mfc140ud.dll
 0000:fffd9000       .debug$S                   00400000     mfc140ud:mfc140ud.dll
 0000:fffd9000       .debug$S                   00400000     mfc140ud:mfc140ud.dll
 0000:fffd9000       .debug$S                   00400000     mfc140ud:mfc140ud.dll
 0000:fffd9000       .debug$S                   00400000     mfc140ud:mfc140ud.dll
 0000:fffd9000       .debug$S                   00400000     mfc140ud:mfc140ud.dll
 0000:fffd9000       .debug$S                   00400000     mfc140ud:mfc140ud.dll
 0000:fffd9000       .debug$S                   00400000     mfc140ud:mfc140ud.dll
 0000:fffd9000       .debug$S                   00400000     mfc140ud:mfc140ud.dll
 0000:fffd9000       .debug$S                   00400000     mfc140ud:mfc140ud.dll
 0000:fffd9000       .debug$S                   00400000     mfc140ud:mfc140ud.dll
 0000:fffd9000       .debug$S                   00400000     mfc140ud:mfc140ud.dll
 0000:fffd9000       .debug$S                   00400000     mfc140ud:mfc140ud.dll
 0000:fffd9000       .debug$S                   00400000     mfc140ud:mfc140ud.dll
 0000:fffd9000       .debug$S                   00400000     mfc140ud:mfc140ud.dll
 0000:fffd9000       .debug$S                   00400000     mfc140ud:mfc140ud.dll
 0000:fffd9000       .debug$S                   00400000     mfc140ud:mfc140ud.dll
 0000:fffd9000       .debug$S                   00400000     mfc140ud:mfc140ud.dll
 0000:fffd9000       .debug$S                   00400000     mfc140ud:mfc140ud.dll
 0000:fffd9000       .debug$S                   00400000     mfc140ud:mfc140ud.dll
 0000:fffd9000       .debug$S                   00400000     mfc140ud:mfc140ud.dll
 0000:fffd9000       .debug$S                   00400000     mfc140ud:mfc140ud.dll
 0000:fffd9000       .debug$S                   00400000     mfc140ud:mfc140ud.dll
 0000:fffd9000       .debug$S                   00400000     mfc140ud:mfc140ud.dll
 0000:fffd9000       .debug$S                   00400000     mfc140ud:mfc140ud.dll
 0000:fffd9000       .debug$S                   00400000     mfc140ud:mfc140ud.dll
 0000:fffd9000       .debug$S                   00400000     mfc140ud:mfc140ud.dll
 0000:fffd9000       .debug$S                   00400000     mfc140ud:mfc140ud.dll
 0000:fffd9000       .debug$S                   00400000     mfc140ud:mfc140ud.dll
 0000:fffd9000       .debug$S                   00400000     mfc140ud:mfc140ud.dll
 0000:fffd9000       .debug$S                   00400000     mfc140ud:mfc140ud.dll
 0000:fffd9000       .debug$S                   00400000     mfc140ud:mfc140ud.dll
 0000:fffd9000       .debug$S                   00400000     mfc140ud:mfc140ud.dll
 0000:fffd9000       .debug$S                   00400000     mfc140ud:mfc140ud.dll
 0000:fffd9000       .debug$S                   00400000     mfc140ud:mfc140ud.dll
 0000:fffd9000       .debug$S                   00400000     mfc140ud:mfc140ud.dll
 0000:fffd9000       .debug$S                   00400000     mfc140ud:mfc140ud.dll
 0000:fffd9000       .debug$S                   00400000     mfc140ud:mfc140ud.dll
 0000:fffd9000       .debug$S                   00400000     mfc140ud:mfc140ud.dll
 0000:fffd9000       .debug$S                   00400000     mfc140ud:mfc140ud.dll
 0000:fffd9000       .debug$S                   00400000     mfc140ud:mfc140ud.dll
 0000:fffd9000       .debug$S                   00400000     mfc140ud:mfc140ud.dll
 0000:fffd9000       .debug$S                   00400000     mfc140ud:mfc140ud.dll
 0000:fffd9000       .debug$S                   00400000     mfc140ud:mfc140ud.dll
 0000:fffd9000       .debug$S                   00400000     mfc140ud:mfc140ud.dll
 0000:fffd9000       .debug$S                   00400000     mfc140ud:mfc140ud.dll
 0000:fffd9000       .debug$S                   00400000     mfc140ud:mfc140ud.dll
 0000:fffd9000       .debug$S                   00400000     mfc140ud:mfc140ud.dll
 0000:fffd9000       .debug$S                   00400000     mfc140ud:mfc140ud.dll
 0000:fffd9000       .debug$S                   00400000     mfc140ud:mfc140ud.dll
 0000:fffd9000       .debug$S                   00400000     mfc140ud:mfc140ud.dll
 0000:fffd9000       .debug$S                   00400000     mfc140ud:mfc140ud.dll
 0000:fffd9000       .debug$S                   00400000     mfc140ud:mfc140ud.dll
 0000:fffd9000       .debug$S                   00400000     mfc140ud:mfc140ud.dll
 0000:fffd9000       .debug$S                   00400000     mfc140ud:mfc140ud.dll
 0000:fffd9000       .debug$S                   00400000     mfc140ud:mfc140ud.dll
 0000:fffd9000       .debug$S                   00400000     mfc140ud:mfc140ud.dll
 0000:fffd9000       .debug$S                   00400000     mfc140ud:mfc140ud.dll
 0000:fffd9000       .debug$S                   00400000     mfc140ud:mfc140ud.dll
 0000:fffd9000       .debug$S                   00400000     mfc140ud:mfc140ud.dll
 0000:fffd9000       .debug$S                   00400000     mfc140ud:mfc140ud.dll
 0000:fffd9000       .debug$S                   00400000     mfc140ud:mfc140ud.dll
 0000:fffd9000       .debug$S                   00400000     mfc140ud:mfc140ud.dll
 0000:fffd9000       .debug$S                   00400000     mfc140ud:mfc140ud.dll
 0000:fffd9000       .debug$S                   00400000     mfc140ud:mfc140ud.dll
 0000:fffd9000       .debug$S                   00400000     mfc140ud:mfc140ud.dll
 0000:fffd9000       .debug$S                   00400000     mfc140ud:mfc140ud.dll
 0000:fffd9000       .debug$S                   00400000     mfc140ud:mfc140ud.dll
 0000:fffd9000       .debug$S                   00400000     mfc140ud:mfc140ud.dll
 0000:fffd9000       .debug$S                   00400000     mfc140ud:mfc140ud.dll
 0000:fffd9000       .debug$S                   00400000     mfc140ud:mfc140ud.dll
 0000:fffd9000       .debug$S                   00400000     mfc140ud:mfc140ud.dll
 0000:fffd9000       .debug$S                   00400000     mfc140ud:mfc140ud.dll
 0000:fffd9000       .debug$S                   00400000     mfc140ud:mfc140ud.dll
 0000:fffd9000       .debug$S                   00400000     mfc140ud:mfc140ud.dll
 0000:fffd9000       .debug$S                   00400000     mfc140ud:mfc140ud.dll
 0000:fffd9000       .debug$S                   00400000     mfc140ud:mfc140ud.dll
 0000:fffd9000       .debug$S                   00400000     mfc140ud:mfc140ud.dll
 0000:fffd9000       .debug$S                   00400000     mfc140ud:mfc140ud.dll
 0000:fffd9000       .debug$S                   00400000     mfc140ud:mfc140ud.dll
 0000:fffd9000       .debug$S                   00400000     mfc140ud:mfc140ud.dll
 0000:fffd9000       .debug$S                   00400000     mfc140ud:mfc140ud.dll
 0000:fffd9000       .debug$S                   00400000     mfc140ud:mfc140ud.dll
 0000:fffd9000       .debug$S                   00400000     mfc140ud:mfc140ud.dll
 0000:fffd9000       .debug$S                   00400000     mfc140ud:mfc140ud.dll
 0000:fffd9000       .debug$S                   00400000     mfc140ud:mfc140ud.dll
 0000:fffd9000       .debug$S                   00400000     mfc140ud:mfc140ud.dll
 0000:fffd9000       .debug$S                   00400000     mfc140ud:mfc140ud.dll
 0000:fffd9000       .debug$S                   00400000     mfc140ud:mfc140ud.dll
 0000:fffd9000       .debug$S                   00400000     mfc140ud:mfc140ud.dll
 0000:fffd9000       .debug$S                   00400000     mfc140ud:mfc140ud.dll
 0000:fffd9000       .debug$S                   00400000     mfc140ud:mfc140ud.dll
 0000:fffd9000       .debug$S                   00400000     mfc140ud:mfc140ud.dll
 0000:fffd9000       .debug$S                   00400000     mfc140ud:mfc140ud.dll
 0000:fffd9000       .debug$S                   00400000     mfc140ud:mfc140ud.dll
 0000:fffd9000       .debug$S                   00400000     mfc140ud:mfc140ud.dll
 0000:fffd9000       .debug$S                   00400000     mfc140ud:mfc140ud.dll
 0000:fffd9000       .debug$S                   00400000     mfc140ud:mfc140ud.dll
 0000:fffd9000       .debug$S                   00400000     mfc140ud:mfc140ud.dll
 0000:fffd9000       .debug$S                   00400000     mfc140ud:mfc140ud.dll
 0000:fffd9000       .debug$S                   00400000     mfc140ud:mfc140ud.dll
 0000:fffd9000       .debug$S                   00400000     mfc140ud:mfc140ud.dll
 0000:fffd9000       .debug$S                   00400000     mfc140ud:mfc140ud.dll
 0000:fffd9000       .debug$S                   00400000     mfc140ud:mfc140ud.dll
 0000:fffd9000       .debug$S                   00400000     mfc140ud:mfc140ud.dll
 0000:fffd9000       .debug$S                   00400000     mfc140ud:mfc140ud.dll
 0000:fffd9000       .debug$S                   00400000     mfc140ud:mfc140ud.dll
 0000:fffd9000       .debug$S                   00400000     mfc140ud:mfc140ud.dll
 0000:fffd9000       .debug$S                   00400000     mfc140ud:mfc140ud.dll
 0000:fffd9000       .debug$S                   00400000     mfc140ud:mfc140ud.dll
 0000:fffd9000       .debug$S                   00400000     mfc140ud:mfc140ud.dll
 0000:fffd9000       .debug$S                   00400000     mfc140ud:mfc140ud.dll
 0000:fffd9000       .debug$S                   00400000     mfc140ud:mfc140ud.dll
 0000:fffd9000       .debug$S                   00400000     mfc140ud:mfc140ud.dll
 0000:fffd9000       .debug$S                   00400000     mfc140ud:mfc140ud.dll
 0000:fffd9000       .debug$S                   00400000     mfc140ud:mfc140ud.dll
 0000:fffd9000       .debug$S                   00400000     mfc140ud:mfc140ud.dll
 0000:fffd9000       .debug$S                   00400000     mfc140ud:mfc140ud.dll
 0000:fffd9000       .debug$S                   00400000     mfc140ud:mfc140ud.dll
 0000:fffd9000       .debug$S                   00400000     mfc140ud:mfc140ud.dll
 0000:fffd9000       .debug$S                   00400000     mfc140ud:mfc140ud.dll
 0000:fffd9000       .debug$S                   00400000     mfc140ud:mfc140ud.dll
 0000:fffd9000       .debug$S                   00400000     mfc140ud:mfc140ud.dll
 0000:fffd9000       .debug$S                   00400000     mfc140ud:mfc140ud.dll
 0000:fffd9000       .debug$S                   00400000     mfc140ud:mfc140ud.dll
 0000:fffd9000       .debug$S                   00400000     mfc140ud:mfc140ud.dll
 0000:fffd9000       .debug$S                   00400000     mfc140ud:mfc140ud.dll
 0000:fffd9000       .debug$S                   00400000     mfc140ud:mfc140ud.dll
 0000:fffd9000       .debug$S                   00400000     mfc140ud:mfc140ud.dll
 0000:fffd9000       .debug$S                   00400000     mfc140ud:mfc140ud.dll
 0000:fffd9000       .debug$S                   00400000     mfc140ud:mfc140ud.dll
 0000:fffd9000       .debug$S                   00400000     mfc140ud:mfc140ud.dll
 0000:fffd9000       .debug$S                   00400000     mfc140ud:mfc140ud.dll
 0000:fffd9000       .debug$S                   00400000     mfc140ud:mfc140ud.dll
 0000:fffd9000       .debug$S                   00400000     mfc140ud:mfc140ud.dll
 0000:fffd9000       .debug$S                   00400000     mfc140ud:mfc140ud.dll
 0000:fffd9000       .debug$S                   00400000     mfc140ud:mfc140ud.dll
 0000:fffd9000       .debug$S                   00400000     mfc140ud:mfc140ud.dll
 0000:fffd9000       .debug$S                   00400000     mfc140ud:mfc140ud.dll
 0000:fffd9000       .debug$S                   00400000     mfc140ud:mfc140ud.dll
 0000:fffd9000       .debug$S                   00400000     mfc140ud:mfc140ud.dll
 0000:fffd9000       .debug$S                   00400000     mfc140ud:mfc140ud.dll
 0000:fffd9000       .debug$S                   00400000     mfc140ud:mfc140ud.dll
 0000:fffd9000       .debug$S                   00400000     mfc140ud:mfc140ud.dll
 0000:fffd9000       .debug$S                   00400000     mfc140ud:mfc140ud.dll
 0000:fffd9000       .debug$S                   00400000     mfc140ud:mfc140ud.dll
 0000:fffd9000       .debug$S                   00400000     mfc140ud:mfc140ud.dll
 0000:fffd9000       .debug$S                   00400000     mfc140ud:mfc140ud.dll
 0000:fffd9000       .debug$S                   00400000     mfc140ud:mfc140ud.dll
 0000:fffd9000       .debug$S                   00400000     mfc140ud:mfc140ud.dll
 0000:fffd9000       .debug$S                   00400000     mfc140ud:mfc140ud.dll
 0000:fffd9000       .debug$S                   00400000     mfc140ud:mfc140ud.dll
 0000:fffd9000       .debug$S                   00400000     mfc140ud:mfc140ud.dll
 0000:fffd9000       .debug$S                   00400000     mfc140ud:mfc140ud.dll
 0000:fffd9000       .debug$S                   00400000     mfc140ud:mfc140ud.dll
 0000:fffd9000       .debug$S                   00400000     mfc140ud:mfc140ud.dll
 0000:fffd9000       .debug$S                   00400000     mfc140ud:mfc140ud.dll
 0000:fffd9000       .debug$S                   00400000     mfc140ud:mfc140ud.dll
 0000:fffd9000       .debug$S                   00400000     mfc140ud:mfc140ud.dll
 0000:fffd9000       .debug$S                   00400000     mfc140ud:mfc140ud.dll
 0000:fffd9000       .debug$S                   00400000     mfc140ud:mfc140ud.dll
 0000:fffd9000       .debug$S                   00400000     mfc140ud:mfc140ud.dll
 0000:fffd9000       .debug$S                   00400000     mfc140ud:mfc140ud.dll
 0000:fffd9000       .debug$S                   00400000     mfc140ud:mfc140ud.dll
 0000:fffd9000       .debug$S                   00400000     mfc140ud:mfc140ud.dll
 0000:fffd9000       .debug$S                   00400000     mfc140ud:mfc140ud.dll
 0000:fffd9000       .debug$S                   00400000     mfc140ud:mfc140ud.dll
 0000:fffd9000       .debug$S                   00400000     mfc140ud:mfc140ud.dll
 0000:fffd9000       .debug$S                   00400000     mfc140ud:mfc140ud.dll
 0000:fffd9000       .debug$S                   00400000     mfc140ud:mfc140ud.dll
 0000:fffd9000       .debug$S                   00400000     mfc140ud:mfc140ud.dll
 0000:fffd9000       .debug$S                   00400000     mfc140ud:mfc140ud.dll
 0000:fffd9000       .debug$S                   00400000     mfc140ud:mfc140ud.dll
 0000:fffd9000       .debug$S                   00400000     mfc140ud:mfc140ud.dll
 0000:fffd9000       .debug$S                   00400000     mfc140ud:mfc140ud.dll
 0000:fffd9000       .debug$S                   00400000     mfc140ud:mfc140ud.dll
 0000:fffd9000       .debug$S                   00400000     mfc140ud:mfc140ud.dll
 0000:fffd9000       .debug$S                   00400000     mfc140ud:mfc140ud.dll
 0000:fffd9000       .debug$S                   00400000     mfc140ud:mfc140ud.dll
 0000:fffd9000       .debug$S                   00400000     mfc140ud:mfc140ud.dll
 0000:fffd9000       .debug$S                   00400000     mfc140ud:mfc140ud.dll
 0000:fffd9000       .debug$S                   00400000     mfc140ud:mfc140ud.dll
 0000:fffd9000       .debug$S                   00400000     mfc140ud:mfc140ud.dll
 0000:fffd9000       .debug$S                   00400000     mfc140ud:mfc140ud.dll
 0000:fffd9000       .debug$S                   00400000     mfc140ud:mfc140ud.dll
 0000:fffd9000       .debug$S                   00400000     mfc140ud:mfc140ud.dll
 0000:fffd9000       .debug$S                   00400000     mfc140ud:mfc140ud.dll
 0000:fffd9000       .debug$S                   00400000     mfc140ud:mfc140ud.dll
 0000:fffd9000       .debug$S                   00400000     mfc140ud:mfc140ud.dll
 0000:fffd9000       .debug$S                   00400000     mfc140ud:mfc140ud.dll
 0000:fffd9000       .debug$S                   00400000     mfc140ud:mfc140ud.dll
 0000:fffd9000       .debug$S                   00400000     mfc140ud:mfc140ud.dll
 0000:fffd9000       .debug$S                   00400000     mfc140ud:mfc140ud.dll
 0000:fffd9000       .debug$S                   00400000     mfc140ud:mfc140ud.dll
 0000:fffd9000       .debug$S                   00400000     mfc140ud:mfc140ud.dll
 0000:fffd9000       .debug$S                   00400000     mfc140ud:mfc140ud.dll
 0000:fffd9000       .debug$S                   00400000     mfc140ud:mfc140ud.dll
 0000:fffd9000       .debug$S                   00400000     mfc140ud:mfc140ud.dll
 0000:fffd9000       .debug$S                   00400000     mfc140ud:mfc140ud.dll
 0000:fffd9000       .debug$S                   00400000     mfc140ud:mfc140ud.dll
 0000:fffd9000       .debug$S                   00400000     mfc140ud:mfc140ud.dll
 0000:fffd9000       .debug$S                   00400000     mfc140ud:mfc140ud.dll
 0000:fffd9000       .debug$S                   00400000     mfc140ud:mfc140ud.dll
 0000:fffd9000       .debug$S                   00400000     mfc140ud:mfc140ud.dll
 0000:fffd9000       .debug$S                   00400000     mfc140ud:mfc140ud.dll
 0000:fffd9000       .debug$S                   00400000     mfc140ud:mfc140ud.dll
 0000:fffd9000       .debug$S                   00400000     mfc140ud:mfc140ud.dll
 0002:fffed000       ?InitializeCAtlStringMgr$initializer$@ATLImplementationDetails@ATL@@3P6AXXZA 00400000     mfcs140ud:appmodul.obj
 0002:fffed000       ?_AtlComModule$initializer$@ATL@@3P6AXXZA 00400000     mfcs140ud:appmodul.obj
 0002:fffed000       ?_AtlWinModule$initializer$@ATL@@3P6AXXZA 00400000     mfcs140ud:appmodul.obj
 0002:fffed000       ?atlTraceAllocation$initializer$@ATL@@3P6AXXZA 00400000     mfcs140ud:appmodul.obj
 0002:fffed000       ?atlTraceCOM$initializer$@ATL@@3P6AXXZA 00400000     mfcs140ud:appmodul.obj
 0002:fffed000       ?atlTraceCache$initializer$@ATL@@3P6AXXZA 00400000     mfcs140ud:appmodul.obj
 0002:fffed000       ?atlTraceControls$initializer$@ATL@@3P6AXXZA 00400000     mfcs140ud:appmodul.obj
 0002:fffed000       ?atlTraceDBClient$initializer$@ATL@@3P6AXXZA 00400000     mfcs140ud:appmodul.obj
 0002:fffed000       ?atlTraceDBProvider$initializer$@ATL@@3P6AXXZA 00400000     mfcs140ud:appmodul.obj
 0002:fffed000       ?atlTraceException$initializer$@ATL@@3P6AXXZA 00400000     mfcs140ud:appmodul.obj
 0002:fffed000       ?atlTraceGeneral$initializer$@ATL@@3P6AXXZA 00400000     mfcs140ud:appmodul.obj
 0002:fffed000       ?atlTraceHosting$initializer$@ATL@@3P6AXXZA 00400000     mfcs140ud:appmodul.obj
 0002:fffed000       ?atlTraceISAPI$initializer$@ATL@@3P6AXXZA 00400000     mfcs140ud:appmodul.obj
 0002:fffed000       ?atlTraceMap$initializer$@ATL@@3P6AXXZA 00400000     mfcs140ud:appmodul.obj
 0002:fffed000       ?atlTraceNotImpl$initializer$@ATL@@3P6AXXZA 00400000     mfcs140ud:appmodul.obj
 0002:fffed000       ?atlTraceQI$initializer$@ATL@@3P6AXXZA 00400000     mfcs140ud:appmodul.obj
 0002:fffed000       ?atlTraceRefcount$initializer$@ATL@@3P6AXXZA 00400000     mfcs140ud:appmodul.obj
 0002:fffed000       ?atlTraceRegistrar$initializer$@ATL@@3P6AXXZA 00400000     mfcs140ud:appmodul.obj
 0002:fffed000       ?atlTraceSecurity$initializer$@ATL@@3P6AXXZA 00400000     mfcs140ud:appmodul.obj
 0002:fffed000       ?atlTraceSnapin$initializer$@ATL@@3P6AXXZA 00400000     mfcs140ud:appmodul.obj
 0002:fffed000       ?atlTraceStencil$initializer$@ATL@@3P6AXXZA 00400000     mfcs140ud:appmodul.obj
 0002:fffed000       ?atlTraceString$initializer$@ATL@@3P6AXXZA 00400000     mfcs140ud:appmodul.obj
 0002:fffed000       ?atlTraceSync$initializer$@ATL@@3P6AXXZA 00400000     mfcs140ud:appmodul.obj
 0002:fffed000       ?atlTraceTime$initializer$@ATL@@3P6AXXZA 00400000     mfcs140ud:appmodul.obj
 0002:fffed000       ?atlTraceUtil$initializer$@ATL@@3P6AXXZA 00400000     mfcs140ud:appmodul.obj
 0002:fffed000       ?atlTraceWindowing$initializer$@ATL@@3P6AXXZA 00400000     mfcs140ud:appmodul.obj
 0002:fffed000       __ehfuncinfo$??1?$CSimpleArray@GV?$CSimpleArrayEqualHelper@G@ATL@@@ATL@@QAE@XZ 00400000     mfcs140ud:appmodul.obj
 0002:fffed000       __ehfuncinfo$??1CAtlComModule@ATL@@QAE@XZ 00400000     mfcs140ud:appmodul.obj
 0002:fffed000       __ehfuncinfo$??1CAtlWinModule@ATL@@QAE@XZ 00400000     mfcs140ud:appmodul.obj
 0002:fffed000       __ehfuncinfo$??_Estringdispid@CComTypeInfoHolder@ATL@@QAEPAXI@Z 00400000     mfcs140ud:appmodul.obj
 0001:fffff000       __ehhandler$??1?$CSimpleArray@GV?$CSimpleArrayEqualHelper@G@ATL@@@ATL@@QAE@XZ 00400000 f   mfcs140ud:appmodul.obj
 0001:fffff000       __ehhandler$??1CAtlComModule@ATL@@QAE@XZ 00400000 f   mfcs140ud:appmodul.obj
 0001:fffff000       __ehhandler$??1CAtlWinModule@ATL@@QAE@XZ 00400000 f   mfcs140ud:appmodul.obj
 0001:fffff000       __ehhandler$??_Estringdispid@CComTypeInfoHolder@ATL@@QAEPAXI@Z 00400000 f   mfcs140ud:appmodul.obj
 0002:fffed000       __guard_fids_??_Estringdispid@CComTypeInfoHolder@ATL@@QAEPAXI@Z 00400000     mfcs140ud:appmodul.obj
 0002:fffed000       __guard_fids_??__E_AtlComModule@ATL@@YAXXZ 00400000     mfcs140ud:appmodul.obj
 0002:fffed000       __guard_fids_??__E_AtlWinModule@ATL@@YAXXZ 00400000     mfcs140ud:appmodul.obj
 0002:fffed000       __guard_fids_?GetInstance@CAtlStringMgr@ATL@@SAPAUIAtlStringMgr@2@XZ 00400000     mfcs140ud:appmodul.obj
 0002:fffed000       __guard_fids__             00400000     mfcs140ud:appmodul.obj
 0002:fffed000       __guard_fids__             00400000     mfcs140ud:appmodul.obj
 0002:fffed000       __guard_fids__             00400000     mfcs140ud:appmodul.obj
 0002:fffed000       __guard_fids__             00400000     mfcs140ud:appmodul.obj
 0002:fffed000       __guard_fids__             00400000     mfcs140ud:appmodul.obj
 0002:fffed000       __guard_fids__             00400000     mfcs140ud:appmodul.obj
 0002:fffed000       __guard_fids__             00400000     mfcs140ud:appmodul.obj
 0002:fffed000       __guard_fids__             00400000     mfcs140ud:appmodul.obj
 0002:fffed000       __guard_fids__             00400000     mfcs140ud:appmodul.obj
 0002:fffed000       __guard_fids__             00400000     mfcs140ud:appmodul.obj
 0002:fffed000       __guard_fids__             00400000     mfcs140ud:appmodul.obj
 0002:fffed000       __guard_fids__             00400000     mfcs140ud:appmodul.obj
 0002:fffed000       __guard_fids__             00400000     mfcs140ud:appmodul.obj
 0002:fffed000       __guard_fids__             00400000     mfcs140ud:appmodul.obj
 0002:fffed000       __guard_fids__             00400000     mfcs140ud:appmodul.obj
 0002:fffed000       __guard_fids__             00400000     mfcs140ud:appmodul.obj
 0002:fffed000       __guard_fids__             00400000     mfcs140ud:appmodul.obj
 0002:fffed000       __guard_fids__             00400000     mfcs140ud:appmodul.obj
 0002:fffed000       __guard_fids__             00400000     mfcs140ud:appmodul.obj
 0002:fffed000       __guard_fids__             00400000     mfcs140ud:appmodul.obj
 0002:fffed000       __guard_fids__             00400000     mfcs140ud:appmodul.obj
 0002:fffed000       __guard_fids__             00400000     mfcs140ud:appmodul.obj
 0002:fffed000       __guard_fids__             00400000     mfcs140ud:appmodul.obj
 0002:fffed000       __guard_fids__             00400000     mfcs140ud:appmodul.obj
 0002:fffed000       __guard_fids__             00400000     mfcs140ud:appmodul.obj
 0002:fffed000       __guard_fids__             00400000     mfcs140ud:appmodul.obj
 0002:fffed000       __guard_fids__             00400000     mfcs140ud:appmodul.obj
 0002:fffed000       __guard_fids__             00400000     mfcs140ud:appmodul.obj
 0002:fffed000       __guard_fids__             00400000     mfcs140ud:appmodul.obj
 0002:fffed000       __guard_fids__             00400000     mfcs140ud:appmodul.obj
 0002:fffed000       __guard_fids__             00400000     mfcs140ud:appmodul.obj
 0002:fffed000       __guard_fids__             00400000     mfcs140ud:appmodul.obj
 0002:fffed000       __guard_fids__             00400000     mfcs140ud:appmodul.obj
 0002:fffed000       __sehtable$_IsolationAwareUnregisterClassW@8 00400000     mfcs140ud:appmodul.obj
 0002:fffed000       __sehtable$_WinbaseIsolationAwarePrivatetRgzlnPgpgk@0 00400000     mfcs140ud:appmodul.obj
 0001:fffff000       __unwindfunclet$??0_ATL_WIN_MODULE70@ATL@@QAE@XZ$0 00400000 f   mfcs140ud:appmodul.obj
 0001:fffff000       __unwindfunclet$??RCTraceFileAndLineInfo@ATL@@QBAXHIPB_WZZ$0 00400000 f   mfcs140ud:appmodul.obj
 0001:fffff000       __unwindfunclet$?TraceV@CTrace@ATL@@SAXPBDHIIPB_WPAD@Z$0 00400000 f   mfcs140ud:appmodul.obj
 0002:fffed000       __unwindtable$??0_ATL_WIN_MODULE70@ATL@@QAE@XZ 00400000     mfcs140ud:appmodul.obj
 0002:fffed000       __unwindtable$??RCTraceFileAndLineInfo@ATL@@QBAXHIPB_WZZ 00400000     mfcs140ud:appmodul.obj
 0002:fffed000       __unwindtable$?TraceV@CTrace@ATL@@SAXPBDHIIPB_WPAD@Z 00400000     mfcs140ud:appmodul.obj
 0002:fffed000       ?InitializeCAtlStringMgr$initializer$@ATLImplementationDetails@ATL@@3P6AXXZA 00400000     mfcs140ud:nolib.obj
 0002:fffed000       ?_AtlComModule$initializer$@ATL@@3P6AXXZA 00400000     mfcs140ud:nolib.obj
 0002:fffed000       ?_AtlWinModule$initializer$@ATL@@3P6AXXZA 00400000     mfcs140ud:nolib.obj
 0002:fffed000       ?atlTraceAllocation$initializer$@ATL@@3P6AXXZA 00400000     mfcs140ud:nolib.obj
 0002:fffed000       ?atlTraceCOM$initializer$@ATL@@3P6AXXZA 00400000     mfcs140ud:nolib.obj
 0002:fffed000       ?atlTraceCache$initializer$@ATL@@3P6AXXZA 00400000     mfcs140ud:nolib.obj
 0002:fffed000       ?atlTraceControls$initializer$@ATL@@3P6AXXZA 00400000     mfcs140ud:nolib.obj
 0002:fffed000       ?atlTraceDBClient$initializer$@ATL@@3P6AXXZA 00400000     mfcs140ud:nolib.obj
 0002:fffed000       ?atlTraceDBProvider$initializer$@ATL@@3P6AXXZA 00400000     mfcs140ud:nolib.obj
 0002:fffed000       ?atlTraceException$initializer$@ATL@@3P6AXXZA 00400000     mfcs140ud:nolib.obj
 0002:fffed000       ?atlTraceGeneral$initializer$@ATL@@3P6AXXZA 00400000     mfcs140ud:nolib.obj
 0002:fffed000       ?atlTraceHosting$initializer$@ATL@@3P6AXXZA 00400000     mfcs140ud:nolib.obj
 0002:fffed000       ?atlTraceISAPI$initializer$@ATL@@3P6AXXZA 00400000     mfcs140ud:nolib.obj
 0002:fffed000       ?atlTraceMap$initializer$@ATL@@3P6AXXZA 00400000     mfcs140ud:nolib.obj
 0002:fffed000       ?atlTraceNotImpl$initializer$@ATL@@3P6AXXZA 00400000     mfcs140ud:nolib.obj
 0002:fffed000       ?atlTraceQI$initializer$@ATL@@3P6AXXZA 00400000     mfcs140ud:nolib.obj
 0002:fffed000       ?atlTraceRefcount$initializer$@ATL@@3P6AXXZA 00400000     mfcs140ud:nolib.obj
 0002:fffed000       ?atlTraceRegistrar$initializer$@ATL@@3P6AXXZA 00400000     mfcs140ud:nolib.obj
 0002:fffed000       ?atlTraceSecurity$initializer$@ATL@@3P6AXXZA 00400000     mfcs140ud:nolib.obj
 0002:fffed000       ?atlTraceSnapin$initializer$@ATL@@3P6AXXZA 00400000     mfcs140ud:nolib.obj
 0002:fffed000       ?atlTraceStencil$initializer$@ATL@@3P6AXXZA 00400000     mfcs140ud:nolib.obj
 0002:fffed000       ?atlTraceString$initializer$@ATL@@3P6AXXZA 00400000     mfcs140ud:nolib.obj
 0002:fffed000       ?atlTraceSync$initializer$@ATL@@3P6AXXZA 00400000     mfcs140ud:nolib.obj
 0002:fffed000       ?atlTraceTime$initializer$@ATL@@3P6AXXZA 00400000     mfcs140ud:nolib.obj
 0002:fffed000       ?atlTraceUtil$initializer$@ATL@@3P6AXXZA 00400000     mfcs140ud:nolib.obj
 0002:fffed000       ?atlTraceWindowing$initializer$@ATL@@3P6AXXZA 00400000     mfcs140ud:nolib.obj
 0002:fffed000       __ehfuncinfo$??1?$CSimpleArray@GV?$CSimpleArrayEqualHelper@G@ATL@@@ATL@@QAE@XZ 00400000     mfcs140ud:nolib.obj
 0002:fffed000       __ehfuncinfo$??1CAtlComModule@ATL@@QAE@XZ 00400000     mfcs140ud:nolib.obj
 0002:fffed000       __ehfuncinfo$??1CAtlWinModule@ATL@@QAE@XZ 00400000     mfcs140ud:nolib.obj
 0001:fffff000       __ehhandler$??1?$CSimpleArray@GV?$CSimpleArrayEqualHelper@G@ATL@@@ATL@@QAE@XZ 00400000 f   mfcs140ud:nolib.obj
 0001:fffff000       __ehhandler$??1CAtlComModule@ATL@@QAE@XZ 00400000 f   mfcs140ud:nolib.obj
 0001:fffff000       __ehhandler$??1CAtlWinModule@ATL@@QAE@XZ 00400000 f   mfcs140ud:nolib.obj
 0002:fffed000       __guard_fids_??_Estringdispid@CComTypeInfoHolder@ATL@@QAEPAXI@Z 00400000     mfcs140ud:nolib.obj
 0002:fffed000       __guard_fids_??__E_AtlComModule@ATL@@YAXXZ 00400000     mfcs140ud:nolib.obj
 0002:fffed000       __guard_fids_??__E_AtlWinModule@ATL@@YAXXZ 00400000     mfcs140ud:nolib.obj
 0002:fffed000       __guard_fids_?GetInstance@CAtlStringMgr@ATL@@SAPAUIAtlStringMgr@2@XZ 00400000     mfcs140ud:nolib.obj
 0002:fffed000       __guard_fids__             00400000     mfcs140ud:nolib.obj
 0002:fffed000       __guard_fids__             00400000     mfcs140ud:nolib.obj
 0002:fffed000       __guard_fids__             00400000     mfcs140ud:nolib.obj
 0002:fffed000       __guard_fids__             00400000     mfcs140ud:nolib.obj
 0002:fffed000       __guard_fids__             00400000     mfcs140ud:nolib.obj
 0002:fffed000       __guard_fids__             00400000     mfcs140ud:nolib.obj
 0002:fffed000       __guard_fids__             00400000     mfcs140ud:nolib.obj
 0002:fffed000       __guard_fids__             00400000     mfcs140ud:nolib.obj
 0002:fffed000       __guard_fids__             00400000     mfcs140ud:nolib.obj
 0002:fffed000       __guard_fids__             00400000     mfcs140ud:nolib.obj
 0002:fffed000       __guard_fids__             00400000     mfcs140ud:nolib.obj
 0002:fffed000       __guard_fids__             00400000     mfcs140ud:nolib.obj
 0002:fffed000       __guard_fids__             00400000     mfcs140ud:nolib.obj
 0002:fffed000       __guard_fids__             00400000     mfcs140ud:nolib.obj
 0002:fffed000       __guard_fids__             00400000     mfcs140ud:nolib.obj
 0002:fffed000       __guard_fids__             00400000     mfcs140ud:nolib.obj
 0002:fffed000       __guard_fids__             00400000     mfcs140ud:nolib.obj
 0002:fffed000       __guard_fids__             00400000     mfcs140ud:nolib.obj
 0002:fffed000       __guard_fids__             00400000     mfcs140ud:nolib.obj
 0002:fffed000       __guard_fids__             00400000     mfcs140ud:nolib.obj
 0002:fffed000       __guard_fids__             00400000     mfcs140ud:nolib.obj
 0002:fffed000       __guard_fids__             00400000     mfcs140ud:nolib.obj
 0002:fffed000       __guard_fids__             00400000     mfcs140ud:nolib.obj
 0002:fffed000       __guard_fids__             00400000     mfcs140ud:nolib.obj
 0002:fffed000       __guard_fids__             00400000     mfcs140ud:nolib.obj
 0002:fffed000       __guard_fids__             00400000     mfcs140ud:nolib.obj
 0002:fffed000       __guard_fids__             00400000     mfcs140ud:nolib.obj
 0002:fffed000       __guard_fids__             00400000     mfcs140ud:nolib.obj
 0002:fffed000       __guard_fids__             00400000     mfcs140ud:nolib.obj
 0002:fffed000       __guard_fids__             00400000     mfcs140ud:nolib.obj
 0002:fffed000       __guard_fids__             00400000     mfcs140ud:nolib.obj
 0002:fffed000       __guard_fids__             00400000     mfcs140ud:nolib.obj
 0001:fffff000       __unwindfunclet$??0_ATL_WIN_MODULE70@ATL@@QAE@XZ$0 00400000 f   mfcs140ud:nolib.obj
 0001:fffff000       __unwindfunclet$??RCTraceFileAndLineInfo@ATL@@QBAXHIPB_WZZ$0 00400000 f   mfcs140ud:nolib.obj
 0001:fffff000       __unwindfunclet$?TraceV@CTrace@ATL@@SAXPBDHIIPB_WPAD@Z$0 00400000 f   mfcs140ud:nolib.obj
 0002:fffed000       __unwindtable$??0_ATL_WIN_MODULE70@ATL@@QAE@XZ 00400000     mfcs140ud:nolib.obj
 0002:fffed000       __unwindtable$??RCTraceFileAndLineInfo@ATL@@QBAXHIPB_WZZ 00400000     mfcs140ud:nolib.obj
 0002:fffed000       __unwindtable$?TraceV@CTrace@ATL@@SAXPBDHIIPB_WPAD@Z 00400000     mfcs140ud:nolib.obj
 0002:fffed000       ?InitializeCAtlStringMgr$initializer$@ATLImplementationDetails@ATL@@3P6AXXZA 00400000     mfcs140ud:stdafx.obj
 0002:fffed000       ?_AtlComModule$initializer$@ATL@@3P6AXXZA 00400000     mfcs140ud:stdafx.obj
 0002:fffed000       ?_AtlWinModule$initializer$@ATL@@3P6AXXZA 00400000     mfcs140ud:stdafx.obj
 0002:fffed000       ?atlTraceAllocation$initializer$@ATL@@3P6AXXZA 00400000     mfcs140ud:stdafx.obj
 0002:fffed000       ?atlTraceCOM$initializer$@ATL@@3P6AXXZA 00400000     mfcs140ud:stdafx.obj
 0002:fffed000       ?atlTraceCache$initializer$@ATL@@3P6AXXZA 00400000     mfcs140ud:stdafx.obj
 0002:fffed000       ?atlTraceControls$initializer$@ATL@@3P6AXXZA 00400000     mfcs140ud:stdafx.obj
 0002:fffed000       ?atlTraceDBClient$initializer$@ATL@@3P6AXXZA 00400000     mfcs140ud:stdafx.obj
 0002:fffed000       ?atlTraceDBProvider$initializer$@ATL@@3P6AXXZA 00400000     mfcs140ud:stdafx.obj
 0002:fffed000       ?atlTraceException$initializer$@ATL@@3P6AXXZA 00400000     mfcs140ud:stdafx.obj
 0002:fffed000       ?atlTraceGeneral$initializer$@ATL@@3P6AXXZA 00400000     mfcs140ud:stdafx.obj
 0002:fffed000       ?atlTraceHosting$initializer$@ATL@@3P6AXXZA 00400000     mfcs140ud:stdafx.obj
 0002:fffed000       ?atlTraceISAPI$initializer$@ATL@@3P6AXXZA 00400000     mfcs140ud:stdafx.obj
 0002:fffed000       ?atlTraceMap$initializer$@ATL@@3P6AXXZA 00400000     mfcs140ud:stdafx.obj
 0002:fffed000       ?atlTraceNotImpl$initializer$@ATL@@3P6AXXZA 00400000     mfcs140ud:stdafx.obj
 0002:fffed000       ?atlTraceQI$initializer$@ATL@@3P6AXXZA 00400000     mfcs140ud:stdafx.obj
 0002:fffed000       ?atlTraceRefcount$initializer$@ATL@@3P6AXXZA 00400000     mfcs140ud:stdafx.obj
 0002:fffed000       ?atlTraceRegistrar$initializer$@ATL@@3P6AXXZA 00400000     mfcs140ud:stdafx.obj
 0002:fffed000       ?atlTraceSecurity$initializer$@ATL@@3P6AXXZA 00400000     mfcs140ud:stdafx.obj
 0002:fffed000       ?atlTraceSnapin$initializer$@ATL@@3P6AXXZA 00400000     mfcs140ud:stdafx.obj
 0002:fffed000       ?atlTraceStencil$initializer$@ATL@@3P6AXXZA 00400000     mfcs140ud:stdafx.obj
 0002:fffed000       ?atlTraceString$initializer$@ATL@@3P6AXXZA 00400000     mfcs140ud:stdafx.obj
 0002:fffed000       ?atlTraceSync$initializer$@ATL@@3P6AXXZA 00400000     mfcs140ud:stdafx.obj
 0002:fffed000       ?atlTraceTime$initializer$@ATL@@3P6AXXZA 00400000     mfcs140ud:stdafx.obj
 0002:fffed000       ?atlTraceUtil$initializer$@ATL@@3P6AXXZA 00400000     mfcs140ud:stdafx.obj
 0002:fffed000       ?atlTraceWindowing$initializer$@ATL@@3P6AXXZA 00400000     mfcs140ud:stdafx.obj
 0002:fffed000       __ehfuncinfo$??1?$CSimpleArray@GV?$CSimpleArrayEqualHelper@G@ATL@@@ATL@@QAE@XZ 00400000     mfcs140ud:stdafx.obj
 0002:fffed000       __ehfuncinfo$??1CAtlComModule@ATL@@QAE@XZ 00400000     mfcs140ud:stdafx.obj
 0002:fffed000       __ehfuncinfo$??1CAtlWinModule@ATL@@QAE@XZ 00400000     mfcs140ud:stdafx.obj
 0002:fffed000       __ehfuncinfo$??_Estringdispid@CComTypeInfoHolder@ATL@@QAEPAXI@Z 00400000     mfcs140ud:stdafx.obj
 0001:fffff000       __ehhandler$??1?$CSimpleArray@GV?$CSimpleArrayEqualHelper@G@ATL@@@ATL@@QAE@XZ 00400000 f   mfcs140ud:stdafx.obj
 0001:fffff000       __ehhandler$??1CAtlComModule@ATL@@QAE@XZ 00400000 f   mfcs140ud:stdafx.obj
 0001:fffff000       __ehhandler$??1CAtlWinModule@ATL@@QAE@XZ 00400000 f   mfcs140ud:stdafx.obj
 0001:fffff000       __ehhandler$??_Estringdispid@CComTypeInfoHolder@ATL@@QAEPAXI@Z 00400000 f   mfcs140ud:stdafx.obj
 0002:fffed000       __guard_fids_??_Estringdispid@CComTypeInfoHolder@ATL@@QAEPAXI@Z 00400000     mfcs140ud:stdafx.obj
 0002:fffed000       __guard_fids_??__E_AtlComModule@ATL@@YAXXZ 00400000     mfcs140ud:stdafx.obj
 0002:fffed000       __guard_fids_??__E_AtlWinModule@ATL@@YAXXZ 00400000     mfcs140ud:stdafx.obj
 0002:fffed000       __guard_fids_?GetInstance@CAtlStringMgr@ATL@@SAPAUIAtlStringMgr@2@XZ 00400000     mfcs140ud:stdafx.obj
 0002:fffed000       __guard_fids__             00400000     mfcs140ud:stdafx.obj
 0002:fffed000       __guard_fids__             00400000     mfcs140ud:stdafx.obj
 0002:fffed000       __guard_fids__             00400000     mfcs140ud:stdafx.obj
 0002:fffed000       __guard_fids__             00400000     mfcs140ud:stdafx.obj
 0002:fffed000       __guard_fids__             00400000     mfcs140ud:stdafx.obj
 0002:fffed000       __guard_fids__             00400000     mfcs140ud:stdafx.obj
 0002:fffed000       __guard_fids__             00400000     mfcs140ud:stdafx.obj
 0002:fffed000       __guard_fids__             00400000     mfcs140ud:stdafx.obj
 0002:fffed000       __guard_fids__             00400000     mfcs140ud:stdafx.obj
 0002:fffed000       __guard_fids__             00400000     mfcs140ud:stdafx.obj
 0002:fffed000       __guard_fids__             00400000     mfcs140ud:stdafx.obj
 0002:fffed000       __guard_fids__             00400000     mfcs140ud:stdafx.obj
 0002:fffed000       __guard_fids__             00400000     mfcs140ud:stdafx.obj
 0002:fffed000       __guard_fids__             00400000     mfcs140ud:stdafx.obj
 0002:fffed000       __guard_fids__             00400000     mfcs140ud:stdafx.obj
 0002:fffed000       __guard_fids__             00400000     mfcs140ud:stdafx.obj
 0002:fffed000       __guard_fids__             00400000     mfcs140ud:stdafx.obj
 0002:fffed000       __guard_fids__             00400000     mfcs140ud:stdafx.obj
 0002:fffed000       __guard_fids__             00400000     mfcs140ud:stdafx.obj
 0002:fffed000       __guard_fids__             00400000     mfcs140ud:stdafx.obj
 0002:fffed000       __guard_fids__             00400000     mfcs140ud:stdafx.obj
 0002:fffed000       __guard_fids__             00400000     mfcs140ud:stdafx.obj
 0002:fffed000       __guard_fids__             00400000     mfcs140ud:stdafx.obj
 0002:fffed000       __guard_fids__             00400000     mfcs140ud:stdafx.obj
 0002:fffed000       __guard_fids__             00400000     mfcs140ud:stdafx.obj
 0002:fffed000       __guard_fids__             00400000     mfcs140ud:stdafx.obj
 0002:fffed000       __guard_fids__             00400000     mfcs140ud:stdafx.obj
 0002:fffed000       __guard_fids__             00400000     mfcs140ud:stdafx.obj
 0002:fffed000       __guard_fids__             00400000     mfcs140ud:stdafx.obj
 0002:fffed000       __guard_fids__             00400000     mfcs140ud:stdafx.obj
 0002:fffed000       __guard_fids__             00400000     mfcs140ud:stdafx.obj
 0002:fffed000       __guard_fids__             00400000     mfcs140ud:stdafx.obj
 0002:fffed000       __sehtable$_IsolationAwareUnregisterClassW@8 00400000     mfcs140ud:stdafx.obj
 0002:fffed000       __sehtable$_WinbaseIsolationAwarePrivatetRgzlnPgpgk@0 00400000     mfcs140ud:stdafx.obj
 0001:fffff000       __unwindfunclet$??0_ATL_WIN_MODULE70@ATL@@QAE@XZ$0 00400000 f   mfcs140ud:stdafx.obj
 0001:fffff000       __unwindfunclet$??RCTraceFileAndLineInfo@ATL@@QBAXHIPB_WZZ$0 00400000 f   mfcs140ud:stdafx.obj
 0001:fffff000       __unwindfunclet$?TraceV@CTrace@ATL@@SAXPBDHIIPB_WPAD@Z$0 00400000 f   mfcs140ud:stdafx.obj
 0002:fffed000       __unwindtable$??0_ATL_WIN_MODULE70@ATL@@QAE@XZ 00400000     mfcs140ud:stdafx.obj
 0002:fffed000       __unwindtable$??RCTraceFileAndLineInfo@ATL@@QBAXHIPB_WZZ 00400000     mfcs140ud:stdafx.obj
 0002:fffed000       __unwindtable$?TraceV@CTrace@ATL@@SAXPBDHIIPB_WPAD@Z 00400000     mfcs140ud:stdafx.obj
 0002:fffed000       __guard_fids___except_handler4 00400000     msvcrtd:chandler4gs.obj
 0002:fffed000       __guard_fids_?pre_c_initialization@@YAHXZ 00400000     msvcrtd:exe_wwinmain.obj
 0002:fffed000       __guard_fids__             00400000     msvcrtd:exe_wwinmain.obj
 0002:fffed000       __guard_fids__             00400000     msvcrtd:guard_support.obj
 0002:fffed000       __guard_fids___guard_icall_checks_enforced 00400000     msvcrtd:guard_support.obj
 0002:fffed000       __guard_fids___CRT_RTC_INIT 00400000     msvcrtd:init.obj
 0002:fffed000       __guard_fids___CRT_RTC_INITW 00400000     msvcrtd:init.obj
 0002:fffed000       __guard_fids__             00400000     msvcrtd:std_type_info_static.obj
 0002:fffed000       __guard_fids_?__scrt_initialize_thread_safe_statics@@YAHXZ 00400000     msvcrtd:thread_safe_statics.obj
 0002:fffed000       __guard_fids__             00400000     msvcrtd:thread_safe_statics.obj
 0002:fffed000       __guard_fids____scrt_set_unhandled_exception_filter 00400000     msvcrtd:utility_desktop.obj
 0000:fffd9000       .debug$S                   00400000     vcruntimed:VCRUNTIME140D.dll
 0000:fffd9000       .debug$S                   00400000     vcruntimed:VCRUNTIME140D.dll
 0000:fffd9000       .debug$S                   00400000     vcruntimed:VCRUNTIME140D.dll
 0000:fffd9000       .debug$S                   00400000     vcruntimed:VCRUNTIME140D.dll
 0000:fffd9000       .debug$S                   00400000     vcruntimed:VCRUNTIME140D.dll
 0000:fffd9000       .debug$S                   00400000     vcruntimed:VCRUNTIME140D.dll
 0000:fffd9000       .debug$S                   00400000     vcruntimed:VCRUNTIME140D.dll
 0000:fffd9000       .debug$S                   00400000     vcruntimed:VCRUNTIME140D.dll
 0000:fffd9000       .debug$S                   00400000     vcruntimed:VCRUNTIME140D.dll
 0000:fffd9000       .debug$S                   00400000     vcruntimed:VCRUNTIME140D.dll
 0000:fffd9000       .debug$S                   00400000     vcruntimed:VCRUNTIME140D.dll
 0000:fffd9000       .debug$S                   00400000     ucrtd:ucrtbased.dll
 0000:fffd9000       .debug$S                   00400000     ucrtd:ucrtbased.dll
 0000:fffd9000       .debug$S                   00400000     ucrtd:ucrtbased.dll
 0000:fffd9000       .debug$S                   00400000     ucrtd:ucrtbased.dll
 0000:fffd9000       .debug$S                   00400000     ucrtd:ucrtbased.dll
 0000:fffd9000       .debug$S                   00400000     ucrtd:ucrtbased.dll
 0000:fffd9000       .debug$S                   00400000     ucrtd:ucrtbased.dll
 0000:fffd9000       .debug$S                   00400000     ucrtd:ucrtbased.dll
 0000:fffd9000       .debug$S                   00400000     ucrtd:ucrtbased.dll
 0000:fffd9000       .debug$S                   00400000     ucrtd:ucrtbased.dll
 0000:fffd9000       .debug$S                   00400000     ucrtd:ucrtbased.dll
 0000:fffd9000       .debug$S                   00400000     ucrtd:ucrtbased.dll
 0000:fffd9000       .debug$S                   00400000     ucrtd:ucrtbased.dll
 0000:fffd9000       .debug$S                   00400000     ucrtd:ucrtbased.dll
 0000:fffd9000       .debug$S                   00400000     ucrtd:ucrtbased.dll
 0000:fffd9000       .debug$S                   00400000     ucrtd:ucrtbased.dll
 0000:fffd9000       .debug$S                   00400000     ucrtd:ucrtbased.dll
 0000:fffd9000       .debug$S                   00400000     ucrtd:ucrtbased.dll
 0000:fffd9000       .debug$S                   00400000     ucrtd:ucrtbased.dll
 0000:fffd9000       .debug$S                   00400000     ucrtd:ucrtbased.dll
 0000:fffd9000       .debug$S                   00400000     ucrtd:ucrtbased.dll
 0000:fffd9000       .debug$S                   00400000     ucrtd:ucrtbased.dll
 0000:fffd9000       .debug$S                   00400000     ucrtd:ucrtbased.dll
 0000:fffd9000       .debug$S                   00400000     ucrtd:ucrtbased.dll
 0000:fffd9000       .debug$S                   00400000     ucrtd:ucrtbased.dll
 0000:fffd9000       .debug$S                   00400000     ucrtd:ucrtbased.dll
 0000:fffd9000       .debug$S                   00400000     ucrtd:ucrtbased.dll
 0000:fffd9000       .debug$S                   00400000     ucrtd:ucrtbased.dll
 0000:fffd9000       .debug$S                   00400000     ucrtd:ucrtbased.dll
 0000:fffd9000       .debug$S                   00400000     ucrtd:ucrtbased.dll
 0000:fffd9000       .debug$S                   00400000     ucrtd:ucrtbased.dll
 0000:fffd9000       .debug$S                   00400000     ucrtd:ucrtbased.dll
 0000:fffd9000       .debug$S                   00400000     ucrtd:ucrtbased.dll
 0000:fffd9000       .debug$S                   00400000     ucrtd:ucrtbased.dll
 0000:fffd9000       .debug$S                   00400000     ucrtd:ucrtbased.dll
 0000:fffd9000       .debug$S                   00400000     ucrtd:ucrtbased.dll
 0000:fffd9000       .debug$S                   00400000     ucrtd:ucrtbased.dll
 0000:fffd9000       .debug$S                   00400000     ucrtd:ucrtbased.dll
 0000:fffd9000       .debug$S                   00400000     ucrtd:ucrtbased.dll
 0000:fffd9000       .debug$S                   00400000     ucrtd:ucrtbased.dll
 0000:fffd9000       .debug$S                   00400000     ucrtd:ucrtbased.dll
 0000:fffd9000       .debug$S                   00400000     ucrtd:ucrtbased.dll
 0000:fffd9000       .debug$S                   00400000     ucrtd:ucrtbased.dll
 0000:fffd9000       .debug$S                   00400000     ucrtd:ucrtbased.dll
 0000:fffd9000       .debug$S                   00400000     ucrtd:ucrtbased.dll
 0000:fffd9000       .debug$S                   00400000     ucrtd:ucrtbased.dll
 0000:fffd9000       .debug$S                   00400000     ucrtd:ucrtbased.dll
 0000:fffd9000       .debug$S                   00400000     ucrtd:ucrtbased.dll
 0000:fffd9000       .debug$S                   00400000     ucrtd:ucrtbased.dll
 0000:fffd9000       .debug$S                   00400000     ucrtd:ucrtbased.dll
 0000:fffd9000       .debug$S                   00400000     ucrtd:ucrtbased.dll
 0000:fffd9000       .debug$S                   00400000     comctl32:COMCTL32.dll
 0000:fffd9000       .debug$S                   00400000     kernel32:KERNEL32.dll
 0000:fffd9000       .debug$S                   00400000     kernel32:KERNEL32.dll
 0000:fffd9000       .debug$S                   00400000     kernel32:KERNEL32.dll
 0000:fffd9000       .debug$S                   00400000     kernel32:KERNEL32.dll
 0000:fffd9000       .debug$S                   00400000     kernel32:KERNEL32.dll
 0000:fffd9000       .debug$S                   00400000     kernel32:KERNEL32.dll
 0000:fffd9000       .debug$S                   00400000     kernel32:KERNEL32.dll
 0000:fffd9000       .debug$S                   00400000     kernel32:KERNEL32.dll
 0000:fffd9000       .debug$S                   00400000     kernel32:KERNEL32.dll
 0000:fffd9000       .debug$S                   00400000     kernel32:KERNEL32.dll
 0000:fffd9000       .debug$S                   00400000     kernel32:KERNEL32.dll
 0000:fffd9000       .debug$S                   00400000     kernel32:KERNEL32.dll
 0000:fffd9000       .debug$S                   00400000     kernel32:KERNEL32.dll
 0000:fffd9000       .debug$S                   00400000     kernel32:KERNEL32.dll
 0000:fffd9000       .debug$S                   00400000     kernel32:KERNEL32.dll
 0000:fffd9000       .debug$S                   00400000     kernel32:KERNEL32.dll
 0000:fffd9000       .debug$S                   00400000     kernel32:KERNEL32.dll
 0000:fffd9000       .debug$S                   00400000     kernel32:KERNEL32.dll
 0000:fffd9000       .debug$S                   00400000     kernel32:KERNEL32.dll
 0000:fffd9000       .debug$S                   00400000     kernel32:KERNEL32.dll
 0000:fffd9000       .debug$S                   00400000     kernel32:KERNEL32.dll
 0000:fffd9000       .debug$S                   00400000     kernel32:KERNEL32.dll
 0000:fffd9000       .debug$S                   00400000     kernel32:KERNEL32.dll
 0000:fffd9000       .debug$S                   00400000     kernel32:KERNEL32.dll
 0000:fffd9000       .debug$S                   00400000     kernel32:KERNEL32.dll
 0000:fffd9000       .debug$S                   00400000     kernel32:KERNEL32.dll
 0000:fffd9000       .debug$S                   00400000     kernel32:KERNEL32.dll
 0000:fffd9000       .debug$S                   00400000     kernel32:KERNEL32.dll
 0000:fffd9000       .debug$S                   00400000     kernel32:KERNEL32.dll
 0000:fffd9000       .debug$S                   00400000     kernel32:KERNEL32.dll
 0000:fffd9000       .debug$S                   00400000     kernel32:KERNEL32.dll
 0000:fffd9000       .debug$S                   00400000     kernel32:KERNEL32.dll
 0000:fffd9000       .debug$S                   00400000     kernel32:KERNEL32.dll
 0000:fffd9000       .debug$S                   00400000     kernel32:KERNEL32.dll
 0000:fffd9000       .debug$S                   00400000     kernel32:KERNEL32.dll
 0000:fffd9000       .debug$S                   00400000     kernel32:KERNEL32.dll
 0000:fffd9000       .debug$S                   00400000     kernel32:KERNEL32.dll
 0000:fffd9000       .debug$S                   00400000     kernel32:KERNEL32.dll
 0000:fffd9000       .debug$S                   00400000     kernel32:KERNEL32.dll
 0000:fffd9000       .debug$S                   00400000     kernel32:KERNEL32.dll
 0000:fffd9000       .debug$S                   00400000     kernel32:KERNEL32.dll
 0000:fffd9000       .debug$S                   00400000     kernel32:KERNEL32.dll
 0000:fffd9000       .debug$S                   00400000     kernel32:KERNEL32.dll
 0000:fffd9000       .debug$S                   00400000     kernel32:KERNEL32.dll
 0000:fffd9000       .debug$S                   00400000     kernel32:KERNEL32.dll
 0000:fffd9000       .debug$S                   00400000     kernel32:KERNEL32.dll
 0000:fffd9000       .debug$S                   00400000     kernel32:KERNEL32.dll
 0000:fffd9000       .debug$S                   00400000     oleaut32:OLEAUT32.dll
 0000:fffd9000       .debug$S                   00400000     user32:USER32.dll
 0000:fffd9000       .debug$S                   00400000     user32:USER32.dll
 0000:fffd9000       .debug$S                   00400000     user32:USER32.dll
 0000:fffd9000       .debug$S                   00400000     user32:USER32.dll
 0000:fffd9000       .debug$S                   00400000     user32:USER32.dll
 0000:fffd9000       .debug$S                   00400000     ws2_32:WS2_32.dll
 0000:fffd9000       .debug$S                   00400000     ws2_32:WS2_32.dll
 0000:fffd9000       .debug$S                   00400000     wpcap:wpcap.dll
 0000:fffd9000       .debug$S                   00400000     wpcap:wpcap.dll
 0000:fffd9000       .debug$S                   00400000     wpcap:wpcap.dll
 0000:fffd9000       .debug$S                   00400000     wpcap:wpcap.dll
 0000:fffd9000       .debug$S                   00400000     wpcap:wpcap.dll
 0000:fffd9000       .debug$S                   00400000     wpcap:wpcap.dll
 0000:fffd9000       .debug$S                   00400000     wpcap:wpcap.dll
 0000:fffd9000       .debug$S                   00400000     wpcap:wpcap.dll
 0000:fffd9000       .debug$S                   00400000     wpcap:wpcap.dll
 0000:fffd9000       .debug$S                   00400000     wpcap:wpcap.dll
 0000:fffd9000       .debug$S                   00400000     wpcap:wpcap.dll
 0002:fffed004       __guard_fids__             00400004     msvcrtd:exe_wwinmain.obj
 0002:fffed008       __ehfuncinfo$??0_ATL_WIN_MODULE70@ATL@@QAE@XZ 00400008     mfcs140ud:appmodul.obj
 0002:fffed008       __ehfuncinfo$??RCTraceFileAndLineInfo@ATL@@QBAXHIPB_WZZ 00400008     mfcs140ud:appmodul.obj
 0002:fffed008       __ehfuncinfo$?TraceV@CTrace@ATL@@SAXPBDHIIPB_WPAD@Z 00400008     mfcs140ud:appmodul.obj
 0001:fffff008       __ehhandler$??RCTraceFileAndLineInfo@ATL@@QBAXHIPB_WZZ 00400008 f   mfcs140ud:appmodul.obj
 0001:fffff008       __ehhandler$?TraceV@CTrace@ATL@@SAXPBDHIIPB_WPAD@Z 00400008 f   mfcs140ud:appmodul.obj
 0002:fffed008       __ehfuncinfo$??0_ATL_WIN_MODULE70@ATL@@QAE@XZ 00400008     mfcs140ud:nolib.obj
 0002:fffed008       __ehfuncinfo$??RCTraceFileAndLineInfo@ATL@@QBAXHIPB_WZZ 00400008     mfcs140ud:nolib.obj
 0002:fffed008       __ehfuncinfo$?TraceV@CTrace@ATL@@SAXPBDHIIPB_WPAD@Z 00400008     mfcs140ud:nolib.obj
 0001:fffff008       __ehhandler$??RCTraceFileAndLineInfo@ATL@@QBAXHIPB_WZZ 00400008 f   mfcs140ud:nolib.obj
 0001:fffff008       __ehhandler$?TraceV@CTrace@ATL@@SAXPBDHIIPB_WPAD@Z 00400008 f   mfcs140ud:nolib.obj
 0002:fffed008       __ehfuncinfo$??0_ATL_WIN_MODULE70@ATL@@QAE@XZ 00400008     mfcs140ud:stdafx.obj
 0002:fffed008       __ehfuncinfo$??RCTraceFileAndLineInfo@ATL@@QBAXHIPB_WZZ 00400008     mfcs140ud:stdafx.obj
 0002:fffed008       __ehfuncinfo$?TraceV@CTrace@ATL@@SAXPBDHIIPB_WPAD@Z 00400008     mfcs140ud:stdafx.obj
 0001:fffff008       __ehhandler$??RCTraceFileAndLineInfo@ATL@@QBAXHIPB_WZZ 00400008 f   mfcs140ud:stdafx.obj
 0001:fffff008       __ehhandler$?TraceV@CTrace@ATL@@SAXPBDHIIPB_WPAD@Z 00400008 f   mfcs140ud:stdafx.obj
 0002:fffed008       __guard_fids__             00400008     msvcrtd:exe_wwinmain.obj
 0001:fffff00b       __ehhandler$??0_ATL_WIN_MODULE70@ATL@@QAE@XZ 0040000b f   mfcs140ud:appmodul.obj
 0001:fffff00b       __ehhandler$??0_ATL_WIN_MODULE70@ATL@@QAE@XZ 0040000b f   mfcs140ud:nolib.obj
 0001:fffff00b       __ehhandler$??0_ATL_WIN_MODULE70@ATL@@QAE@XZ 0040000b f   mfcs140ud:stdafx.obj
 0001:fffff068       $LN6                       00400068     mfcs140ud:appmodul.obj
 0001:fffff068       $LN6                       00400068     mfcs140ud:nolib.obj
 0001:fffff068       $LN6                       00400068     mfcs140ud:stdafx.obj
 0001:fffff070       $LN5                       00400070     mfcs140ud:appmodul.obj
 0001:fffff070       $LN5                       00400070     mfcs140ud:nolib.obj
 0001:fffff070       $LN5                       00400070     mfcs140ud:stdafx.obj
 0001:fffff07c       $LN4                       0040007c     mfcs140ud:appmodul.obj
 0001:fffff07c       $LN4                       0040007c     mfcs140ud:nolib.obj
 0001:fffff07c       $LN4                       0040007c     mfcs140ud:stdafx.obj
 0001:fffff0b4       $LN7                       004000b4     mfcs140ud:appmodul.obj
 0001:fffff0b4       $LN7                       004000b4     mfcs140ud:nolib.obj
 0001:fffff0b4       $LN7                       004000b4     mfcs140ud:stdafx.obj
 0001:fffff0bc       $LN6                       004000bc     mfcs140ud:appmodul.obj
 0001:fffff0bc       $LN6                       004000bc     mfcs140ud:nolib.obj
 0001:fffff0bc       $LN6                       004000bc     mfcs140ud:stdafx.obj
 0001:fffff0c8       $LN4                       004000c8     mfcs140ud:appmodul.obj
 0001:fffff0c8       $LN4                       004000c8     mfcs140ud:nolib.obj
 0001:fffff0c8       $LN4                       004000c8     mfcs140ud:stdafx.obj
 0001:fffff16c       $LN22                      0040016c     mfcs140ud:appmodul.obj
 0001:fffff16c       $LN22                      0040016c     mfcs140ud:stdafx.obj
 0001:fffff174       $LN21                      00400174     mfcs140ud:appmodul.obj
 0001:fffff174       $LN21                      00400174     mfcs140ud:stdafx.obj
 0001:fffff180       $LN10                      00400180     mfcs140ud:appmodul.obj
 0001:fffff180       $LN10                      00400180     mfcs140ud:nolib.obj
 0001:fffff180       $LN10                      00400180     mfcs140ud:stdafx.obj
 0001:fffff188       $LN9                       00400188     mfcs140ud:appmodul.obj
 0001:fffff188       $LN9                       00400188     mfcs140ud:nolib.obj
 0001:fffff188       $LN9                       00400188     mfcs140ud:stdafx.obj
 0001:fffff18c       $LN20                      0040018c     mfcs140ud:appmodul.obj
 0001:fffff18c       $LN20                      0040018c     mfcs140ud:stdafx.obj
 0001:fffff194       $LN7                       00400194     mfcs140ud:appmodul.obj
 0001:fffff194       $LN7                       00400194     mfcs140ud:nolib.obj
 0001:fffff194       $LN7                       00400194     mfcs140ud:stdafx.obj
 0001:fffff196       $LN19                      00400196     mfcs140ud:appmodul.obj
 0001:fffff196       $LN19                      00400196     mfcs140ud:stdafx.obj
 0001:fffff1d0       $LN24                      004001d0     mfcs140ud:appmodul.obj
 0001:fffff1d0       $LN24                      004001d0     mfcs140ud:nolib.obj
 0001:fffff1d0       $LN24                      004001d0     mfcs140ud:stdafx.obj
 0001:fffff1d8       $LN23                      004001d8     mfcs140ud:appmodul.obj
 0001:fffff1d8       $LN23                      004001d8     mfcs140ud:nolib.obj
 0001:fffff1d8       $LN23                      004001d8     mfcs140ud:stdafx.obj
 0001:fffff1f0       $LN22                      004001f0     mfcs140ud:appmodul.obj
 0001:fffff1f0       $LN25                      004001f0     mfcs140ud:appmodul.obj
 0001:fffff1f0       $LN22                      004001f0     mfcs140ud:nolib.obj
 0001:fffff1f0       $LN25                      004001f0     mfcs140ud:nolib.obj
 0001:fffff1f0       $LN22                      004001f0     mfcs140ud:stdafx.obj
 0001:fffff1f0       $LN25                      004001f0     mfcs140ud:stdafx.obj
 0001:fffff1f8       $LN24                      004001f8     mfcs140ud:appmodul.obj
 0001:fffff1f8       $LN24                      004001f8     mfcs140ud:nolib.obj
 0001:fffff1f8       $LN24                      004001f8     mfcs140ud:stdafx.obj
 0001:fffff1fb       $LN21                      004001fb     mfcs140ud:appmodul.obj
 0001:fffff1fb       $LN21                      004001fb     mfcs140ud:nolib.obj
 0001:fffff1fb       $LN21                      004001fb     mfcs140ud:stdafx.obj
 0001:fffff210       $LN23                      00400210     mfcs140ud:appmodul.obj
 0001:fffff210       $LN23                      00400210     mfcs140ud:nolib.obj
 0001:fffff210       $LN23                      00400210     mfcs140ud:stdafx.obj
 0001:fffff21b       $LN22                      0040021b     mfcs140ud:appmodul.obj
 0001:fffff21b       $LN22                      0040021b     mfcs140ud:nolib.obj
 0001:fffff21b       $LN22                      0040021b     mfcs140ud:stdafx.obj
 0001:fffff250       $LN17                      00400250     mfcs140ud:appmodul.obj
 0001:fffff250       $LN17                      00400250     mfcs140ud:nolib.obj
 0001:fffff250       $LN17                      00400250     mfcs140ud:stdafx.obj
 0001:fffff258       $LN16                      00400258     mfcs140ud:appmodul.obj
 0001:fffff258       $LN16                      00400258     mfcs140ud:nolib.obj
 0001:fffff258       $LN16                      00400258     mfcs140ud:stdafx.obj
 0001:fffff27c       $LN15                      0040027c     mfcs140ud:appmodul.obj
 0001:fffff27c       $LN15                      0040027c     mfcs140ud:nolib.obj
 0001:fffff27c       $LN15                      0040027c     mfcs140ud:stdafx.obj
 0001:fffff285       $LN14                      00400285     mfcs140ud:appmodul.obj
 0001:fffff285       $LN14                      00400285     mfcs140ud:nolib.obj
 0001:fffff285       $LN14                      00400285     mfcs140ud:stdafx.obj
 0001:fffff28c       $LN13                      0040028c     mfcs140ud:appmodul.obj
 0001:fffff28c       $LN13                      0040028c     mfcs140ud:nolib.obj
 0001:fffff28c       $LN13                      0040028c     mfcs140ud:stdafx.obj
 0001:fffff2cc       $LN36                      004002cc     mfcs140ud:appmodul.obj
 0001:fffff2cc       $LN36                      004002cc     mfcs140ud:stdafx.obj
 0001:fffff2d4       $LN35                      004002d4     mfcs140ud:appmodul.obj
 0001:fffff2d4       $LN35                      004002d4     mfcs140ud:stdafx.obj
 0001:fffff31c       $LN34                      0040031c     mfcs140ud:appmodul.obj
 0001:fffff31c       $LN34                      0040031c     mfcs140ud:stdafx.obj
 0001:fffff333       $LN33                      00400333     mfcs140ud:appmodul.obj
 0001:fffff333       $LN33                      00400333     mfcs140ud:stdafx.obj
 0001:fffff33c       $LN32                      0040033c     mfcs140ud:appmodul.obj
 0001:fffff33c       $LN32                      0040033c     mfcs140ud:stdafx.obj
 0001:fffff34f       $LN31                      0040034f     mfcs140ud:appmodul.obj
 0001:fffff34f       $LN31                      0040034f     mfcs140ud:stdafx.obj
 0001:fffff356       $LN30                      00400356     mfcs140ud:appmodul.obj
 0001:fffff356       $LN30                      00400356     mfcs140ud:stdafx.obj
 0001:fffff360       $LN29                      00400360     mfcs140ud:appmodul.obj
 0001:fffff360       $LN29                      00400360     mfcs140ud:stdafx.obj
 0001:00000000       ??__EtheApp@@YAXXZ         00401000 f   mcf6.obj
 0001:00000050       ??__EatlTraceException@ATL@@YAXXZ 00401050 f   mcf6Dlg.obj
 0001:000000a0       ??__EatlTraceString@ATL@@YAXXZ 004010a0 f   mcf6Dlg.obj
 0001:000000f0       ??__EInitializeCAtlStringMgr@ATLImplementationDetails@ATL@@YAXXZ 004010f0 f   stdafx.obj
 0001:00000130       ??__E_AtlComModule@ATL@@YAXXZ 00401130 f   stdafx.obj
 0001:00000180       ??__E_AtlWinModule@ATL@@YAXXZ 00401180 f   stdafx.obj
 0001:000001d0       ??__EatlTraceAllocation@ATL@@YAXXZ 004011d0 f   stdafx.obj
 0001:00000220       ??__EatlTraceCOM@ATL@@YAXXZ 00401220 f   stdafx.obj
 0001:00000270       ??__EatlTraceCache@ATL@@YAXXZ 00401270 f   stdafx.obj
 0001:000002c0       ??__EatlTraceControls@ATL@@YAXXZ 004012c0 f   stdafx.obj
 0001:00000310       ??__EatlTraceDBClient@ATL@@YAXXZ 00401310 f   stdafx.obj
 0001:00000360       ??__EatlTraceDBProvider@ATL@@YAXXZ 00401360 f   stdafx.obj
 0001:000003b0       ??__EatlTraceException@ATL@@YAXXZ 004013b0 f   stdafx.obj
 0001:00000400       ??__EatlTraceGeneral@ATL@@YAXXZ 00401400 f   stdafx.obj
 0001:00000450       ??__EatlTraceHosting@ATL@@YAXXZ 00401450 f   stdafx.obj
 0001:000004a0       ??__EatlTraceISAPI@ATL@@YAXXZ 004014a0 f   stdafx.obj
 0001:000004f0       ??__EatlTraceMap@ATL@@YAXXZ 004014f0 f   stdafx.obj
 0001:00000540       ??__EatlTraceNotImpl@ATL@@YAXXZ 00401540 f   stdafx.obj
 0001:00000590       ??__EatlTraceQI@ATL@@YAXXZ 00401590 f   stdafx.obj
 0001:000005e0       ??__EatlTraceRefcount@ATL@@YAXXZ 004015e0 f   stdafx.obj
 0001:00000630       ??__EatlTraceRegistrar@ATL@@YAXXZ 00401630 f   stdafx.obj
 0001:00000680       ??__EatlTraceSecurity@ATL@@YAXXZ 00401680 f   stdafx.obj
 0001:000006d0       ??__EatlTraceSnapin@ATL@@YAXXZ 004016d0 f   stdafx.obj
 0001:00000720       ??__EatlTraceStencil@ATL@@YAXXZ 00401720 f   stdafx.obj
 0001:00000770       ??__EatlTraceString@ATL@@YAXXZ 00401770 f   stdafx.obj
 0001:000007c0       ??__EatlTraceSync@ATL@@YAXXZ 004017c0 f   stdafx.obj
 0001:00000810       ??__EatlTraceTime@ATL@@YAXXZ 00401810 f   stdafx.obj
 0001:00000860       ??__EatlTraceUtil@ATL@@YAXXZ 00401860 f   stdafx.obj
 0001:000008b0       ??__EatlTraceWindowing@ATL@@YAXXZ 004018b0 f   stdafx.obj
 0001:00000900       ??__EatlTraceException@ATL@@YAXXZ 00401900 f   utilities.obj
 0001:00000950       ??__EInitializeCAtlStringMgr@ATLImplementationDetails@ATL@@YAXXZ 00401950 f   mfcs140ud:nolib.obj
 0001:00000970       ??__E_AtlComModule@ATL@@YAXXZ 00401970 f   mfcs140ud:nolib.obj
 0001:000009a0       ??__E_AtlWinModule@ATL@@YAXXZ 004019a0 f   mfcs140ud:nolib.obj
 0001:000009d0       ??__EatlTraceAllocation@ATL@@YAXXZ 004019d0 f   mfcs140ud:nolib.obj
 0001:000009f0       ??__EatlTraceCOM@ATL@@YAXXZ 004019f0 f   mfcs140ud:nolib.obj
 0001:00000a10       ??__EatlTraceCache@ATL@@YAXXZ 00401a10 f   mfcs140ud:nolib.obj
 0001:00000a30       ??__EatlTraceControls@ATL@@YAXXZ 00401a30 f   mfcs140ud:nolib.obj
 0001:00000a50       ??__EatlTraceDBClient@ATL@@YAXXZ 00401a50 f   mfcs140ud:nolib.obj
 0001:00000a70       ??__EatlTraceDBProvider@ATL@@YAXXZ 00401a70 f   mfcs140ud:nolib.obj
 0001:00000a90       ??__EatlTraceException@ATL@@YAXXZ 00401a90 f   mfcs140ud:nolib.obj
 0001:00000ab0       ??__EatlTraceGeneral@ATL@@YAXXZ 00401ab0 f   mfcs140ud:nolib.obj
 0001:00000ad0       ??__EatlTraceHosting@ATL@@YAXXZ 00401ad0 f   mfcs140ud:nolib.obj
 0001:00000af0       ??__EatlTraceISAPI@ATL@@YAXXZ 00401af0 f   mfcs140ud:nolib.obj
 0001:00000b10       ??__EatlTraceMap@ATL@@YAXXZ 00401b10 f   mfcs140ud:nolib.obj
 0001:00000b30       ??__EatlTraceNotImpl@ATL@@YAXXZ 00401b30 f   mfcs140ud:nolib.obj
 0001:00000b50       ??__EatlTraceQI@ATL@@YAXXZ 00401b50 f   mfcs140ud:nolib.obj
 0001:00000b70       ??__EatlTraceRefcount@ATL@@YAXXZ 00401b70 f   mfcs140ud:nolib.obj
 0001:00000b90       ??__EatlTraceRegistrar@ATL@@YAXXZ 00401b90 f   mfcs140ud:nolib.obj
 0001:00000bb0       ??__EatlTraceSecurity@ATL@@YAXXZ 00401bb0 f   mfcs140ud:nolib.obj
 0001:00000bd0       ??__EatlTraceSnapin@ATL@@YAXXZ 00401bd0 f   mfcs140ud:nolib.obj
 0001:00000bf0       ??__EatlTraceStencil@ATL@@YAXXZ 00401bf0 f   mfcs140ud:nolib.obj
 0001:00000c10       ??__EatlTraceString@ATL@@YAXXZ 00401c10 f   mfcs140ud:nolib.obj
 0001:00000c30       ??__EatlTraceSync@ATL@@YAXXZ 00401c30 f   mfcs140ud:nolib.obj
 0001:00000c50       ??__EatlTraceTime@ATL@@YAXXZ 00401c50 f   mfcs140ud:nolib.obj
 0001:00000c70       ??__EatlTraceUtil@ATL@@YAXXZ 00401c70 f   mfcs140ud:nolib.obj
 0001:00000c90       ??__EatlTraceWindowing@ATL@@YAXXZ 00401c90 f   mfcs140ud:nolib.obj
 0001:00000cb0       ??__EInitializeCAtlStringMgr@ATLImplementationDetails@ATL@@YAXXZ 00401cb0 f   mfcs140ud:stdafx.obj
 0001:00000cd0       ??__E_AtlComModule@ATL@@YAXXZ 00401cd0 f   mfcs140ud:stdafx.obj
 0001:00000d00       ??__E_AtlWinModule@ATL@@YAXXZ 00401d00 f   mfcs140ud:stdafx.obj
 0001:00000d30       ??__EatlTraceAllocation@ATL@@YAXXZ 00401d30 f   mfcs140ud:stdafx.obj
 0001:00000d50       ??__EatlTraceCOM@ATL@@YAXXZ 00401d50 f   mfcs140ud:stdafx.obj
 0001:00000d70       ??__EatlTraceCache@ATL@@YAXXZ 00401d70 f   mfcs140ud:stdafx.obj
 0001:00000d90       ??__EatlTraceControls@ATL@@YAXXZ 00401d90 f   mfcs140ud:stdafx.obj
 0001:00000db0       ??__EatlTraceDBClient@ATL@@YAXXZ 00401db0 f   mfcs140ud:stdafx.obj
 0001:00000dd0       ??__EatlTraceDBProvider@ATL@@YAXXZ 00401dd0 f   mfcs140ud:stdafx.obj
 0001:00000df0       ??__EatlTraceException@ATL@@YAXXZ 00401df0 f   mfcs140ud:stdafx.obj
 0001:00000e10       ??__EatlTraceGeneral@ATL@@YAXXZ 00401e10 f   mfcs140ud:stdafx.obj
 0001:00000e30       ??__EatlTraceHosting@ATL@@YAXXZ 00401e30 f   mfcs140ud:stdafx.obj
 0001:00000e50       ??__EatlTraceISAPI@ATL@@YAXXZ 00401e50 f   mfcs140ud:stdafx.obj
 0001:00000e70       ??__EatlTraceMap@ATL@@YAXXZ 00401e70 f   mfcs140ud:stdafx.obj
 0001:00000e90       ??__EatlTraceNotImpl@ATL@@YAXXZ 00401e90 f   mfcs140ud:stdafx.obj
 0001:00000eb0       ??__EatlTraceQI@ATL@@YAXXZ 00401eb0 f   mfcs140ud:stdafx.obj
 0001:00000ed0       ??__EatlTraceRefcount@ATL@@YAXXZ 00401ed0 f   mfcs140ud:stdafx.obj
 0001:00000ef0       ??__EatlTraceRegistrar@ATL@@YAXXZ 00401ef0 f   mfcs140ud:stdafx.obj
 0001:00000f10       ??__EatlTraceSecurity@ATL@@YAXXZ 00401f10 f   mfcs140ud:stdafx.obj
 0001:00000f30       ??__EatlTraceSnapin@ATL@@YAXXZ 00401f30 f   mfcs140ud:stdafx.obj
 0001:00000f50       ??__EatlTraceStencil@ATL@@YAXXZ 00401f50 f   mfcs140ud:stdafx.obj
 0001:00000f70       ??__EatlTraceString@ATL@@YAXXZ 00401f70 f   mfcs140ud:stdafx.obj
 0001:00000f90       ??__EatlTraceSync@ATL@@YAXXZ 00401f90 f   mfcs140ud:stdafx.obj
 0001:00000fb0       ??__EatlTraceTime@ATL@@YAXXZ 00401fb0 f   mfcs140ud:stdafx.obj
 0001:00000fd0       ??__EatlTraceUtil@ATL@@YAXXZ 00401fd0 f   mfcs140ud:stdafx.obj
 0001:00000ff0       ??__EatlTraceWindowing@ATL@@YAXXZ 00401ff0 f   mfcs140ud:stdafx.obj
 0001:0000100b       ??__E_AtlBaseModule@ATL@@YAXXZ 0040200b f   atls:atlbase.obj
 0001:00001030       ??__EInitializeCAtlStringMgr@ATLImplementationDetails@ATL@@YAXXZ 00402030 f   mfcs140ud:appmodul.obj
 0001:00001050       ??__E_AtlComModule@ATL@@YAXXZ 00402050 f   mfcs140ud:appmodul.obj
 0001:00001080       ??__E_AtlWinModule@ATL@@YAXXZ 00402080 f   mfcs140ud:appmodul.obj
 0001:000010b0       ??__E_afxInitAppState@@YAXXZ 004020b0 f   mfcs140ud:appmodul.obj
 0001:000010d0       ??__EatlTraceAllocation@ATL@@YAXXZ 004020d0 f   mfcs140ud:appmodul.obj
 0001:000010f0       ??__EatlTraceCOM@ATL@@YAXXZ 004020f0 f   mfcs140ud:appmodul.obj
 0001:00001110       ??__EatlTraceCache@ATL@@YAXXZ 00402110 f   mfcs140ud:appmodul.obj
 0001:00001130       ??__EatlTraceControls@ATL@@YAXXZ 00402130 f   mfcs140ud:appmodul.obj
 0001:00001150       ??__EatlTraceDBClient@ATL@@YAXXZ 00402150 f   mfcs140ud:appmodul.obj
 0001:00001170       ??__EatlTraceDBProvider@ATL@@YAXXZ 00402170 f   mfcs140ud:appmodul.obj
 0001:00001190       ??__EatlTraceException@ATL@@YAXXZ 00402190 f   mfcs140ud:appmodul.obj
 0001:000011b0       ??__EatlTraceGeneral@ATL@@YAXXZ 004021b0 f   mfcs140ud:appmodul.obj
 0001:000011d0       ??__EatlTraceHosting@ATL@@YAXXZ 004021d0 f   mfcs140ud:appmodul.obj
 0001:000011f0       ??__EatlTraceISAPI@ATL@@YAXXZ 004021f0 f   mfcs140ud:appmodul.obj
 0001:00001210       ??__EatlTraceMap@ATL@@YAXXZ 00402210 f   mfcs140ud:appmodul.obj
 0001:00001230       ??__EatlTraceNotImpl@ATL@@YAXXZ 00402230 f   mfcs140ud:appmodul.obj
 0001:00001250       ??__EatlTraceQI@ATL@@YAXXZ 00402250 f   mfcs140ud:appmodul.obj
 0001:00001270       ??__EatlTraceRefcount@ATL@@YAXXZ 00402270 f   mfcs140ud:appmodul.obj
 0001:00001290       ??__EatlTraceRegistrar@ATL@@YAXXZ 00402290 f   mfcs140ud:appmodul.obj
 0001:000012b0       ??__EatlTraceSecurity@ATL@@YAXXZ 004022b0 f   mfcs140ud:appmodul.obj
 0001:000012d0       ??__EatlTraceSnapin@ATL@@YAXXZ 004022d0 f   mfcs140ud:appmodul.obj
 0001:000012f0       ??__EatlTraceStencil@ATL@@YAXXZ 004022f0 f   mfcs140ud:appmodul.obj
 0001:00001310       ??__EatlTraceString@ATL@@YAXXZ 00402310 f   mfcs140ud:appmodul.obj
 0001:00001330       ??__EatlTraceSync@ATL@@YAXXZ 00402330 f   mfcs140ud:appmodul.obj
 0001:00001350       ??__EatlTraceTime@ATL@@YAXXZ 00402350 f   mfcs140ud:appmodul.obj
 0001:00001370       ??__EatlTraceUtil@ATL@@YAXXZ 00402370 f   mfcs140ud:appmodul.obj
 0001:00001390       ??__EatlTraceWindowing@ATL@@YAXXZ 00402390 f   mfcs140ud:appmodul.obj
 0001:000018d8       $LN11                      004028d8     mcf6.obj
 0001:000018e0       $LN10                      004028e0     mcf6.obj
 0001:000018f8       $LN8                       004028f8     mcf6.obj
 0001:000018fc       $LN7                       004028fc     mcf6.obj
 0001:00001bb4       $LN9                       00402bb4     mcf6Dlg.obj
 0001:00001bbc       $LN8                       00402bbc     mcf6Dlg.obj
 0001:00001bc8       $LN6                       00402bc8     mcf6Dlg.obj
 0001:00001d50       $LN10                      00402d50     mcf6Dlg.obj
 0001:00001d58       $LN9                       00402d58     mcf6Dlg.obj
 0001:00001d70       $LN7                       00402d70     mcf6Dlg.obj
 0001:00001d75       $LN6                       00402d75     mcf6Dlg.obj
 0001:0000224c       $LN23                      0040324c     mcf6Dlg.obj
 0001:00002254       $LN22                      00403254     mcf6Dlg.obj
 0001:00002260       $LN21                      00403260     mcf6Dlg.obj
 0001:00002264       $LN20                      00403264     mcf6Dlg.obj
 0001:00002420       $LN10                      00403420     mcf6Dlg.obj
 0001:00002428       $LN9                       00403428     mcf6Dlg.obj
 0001:00002434       $LN7                       00403434     mcf6Dlg.obj
 0001:0000295c       $LN9                       0040395c     mcf6Dlg.obj
 0001:00002964       $LN8                       00403964     mcf6Dlg.obj
 0001:00002970       $LN6                       00403970     mcf6Dlg.obj
 0001:000031d0       $LN15                      004041d0     mcf6Dlg.obj
 0001:000031d8       $LN14                      004041d8     mcf6Dlg.obj
 0001:000031e4       $LN12                      004041e4     mcf6Dlg.obj
 0001:00003f90       $LN50                      00404f90     mcf6Dlg.obj
 0001:00003f98       $LN49                      00404f98     mcf6Dlg.obj
 0001:00004004       $LN47                      00405004     mcf6Dlg.obj
 0001:00004007       $LN46                      00405007     mcf6Dlg.obj
 0001:0000400a       $LN45                      0040500a     mcf6Dlg.obj
 0001:00004013       $LN44                      00405013     mcf6Dlg.obj
 0001:0000401a       $LN43                      0040501a     mcf6Dlg.obj
 0001:00004027       $LN42                      00405027     mcf6Dlg.obj
 0001:0000402f       $LN41                      0040502f     mcf6Dlg.obj
 0001:00004036       $LN40                      00405036     mcf6Dlg.obj
 0001:0000403a       $LN39                      0040503a     mcf6Dlg.obj
 0001:00004f84       $LN54                      00405f84     mcf6Dlg.obj
 0001:00004f8c       $LN53                      00405f8c     mcf6Dlg.obj
 0001:00004ff8       $LN51                      00405ff8     mcf6Dlg.obj
 0001:00004ffb       $LN50                      00405ffb     mcf6Dlg.obj
 0001:00004ffe       $LN49                      00405ffe     mcf6Dlg.obj
 0001:00005007       $LN48                      00406007     mcf6Dlg.obj
 0001:0000500e       $LN47                      0040600e     mcf6Dlg.obj
 0001:0000501b       $LN46                      0040601b     mcf6Dlg.obj
 0001:00005023       $LN45                      00406023     mcf6Dlg.obj
 0001:0000502a       $LN44                      0040602a     mcf6Dlg.obj
 0001:0000502e       $LN43                      0040602e     mcf6Dlg.obj
 0001:000052d0       $LN16                      004062d0     mcf6Dlg.obj
 0001:000052d8       $LN15                      004062d8     mcf6Dlg.obj
 0001:000052f0       $LN13                      004062f0     mcf6Dlg.obj
 0001:000052f8       $LN12                      004062f8     mcf6Dlg.obj
 0001:00005a60       $LN38                      00406a60     mcf6Dlg.obj
 0001:00005a68       $LN37                      00406a68     mcf6Dlg.obj
 0001:00005abc       $LN35                      00406abc     mcf6Dlg.obj
 0001:00005ac0       $LN34                      00406ac0     mcf6Dlg.obj
 0001:00005ac8       $LN33                      00406ac8     mcf6Dlg.obj
 0001:00005ad1       $LN32                      00406ad1     mcf6Dlg.obj
 0001:00005ad6       $LN31                      00406ad6     mcf6Dlg.obj
 0001:00005ada       $LN30                      00406ada     mcf6Dlg.obj
 0001:00005ae1       $LN29                      00406ae1     mcf6Dlg.obj
 0001:00005c38       $LN7                       00406c38     mcf6Dlg.obj
 0001:00005c40       $LN6                       00406c40     mcf6Dlg.obj
 0001:00005c4c       $LN4                       00406c4c     mcf6Dlg.obj
 0001:00005fc0       $LN7                       00406fc0     mcf6Dlg.obj
 0001:00005fc8       $LN6                       00406fc8     mcf6Dlg.obj
 0001:00005fd4       $LN4                       00406fd4     mcf6Dlg.obj
 0001:00008398       $LN70                      00409398     mcf6Dlg.obj
 0001:000083a0       $LN69                      004093a0     mcf6Dlg.obj
 0001:000083b8       $LN67                      004093b8     mcf6Dlg.obj
 0001:000083bb       $LN66                      004093bb     mcf6Dlg.obj
 0001:000083c0       _localtime                 004093c0 f   mcf6Dlg.obj
 0001:00008410       _time                      00409410 f   mcf6Dlg.obj
 0001:00009940       $LN7                       0040a940     stdafx.obj
 0001:00009948       $LN6                       0040a948     stdafx.obj
 0001:00009954       $LN4                       0040a954     stdafx.obj
 0001:00009ba8       $LN6                       0040aba8     stdafx.obj
 0001:00009bb0       $LN5                       0040abb0     stdafx.obj
 0001:00009bbc       $LN4                       0040abbc     stdafx.obj
 0001:00009da4       $LN24                      0040ada4     stdafx.obj
 0001:00009dac       $LN23                      0040adac     stdafx.obj
 0001:00009dc4       $LN22                      0040adc4     stdafx.obj
 0001:00009dcf       $LN21                      0040adcf     stdafx.obj
 0001:0000a800       $LN25                      0040b800     stdafx.obj
 0001:0000a808       $LN24                      0040b808     stdafx.obj
 0001:0000a820       $LN23                      0040b820     stdafx.obj
 0001:0000a82b       $LN22                      0040b82b     stdafx.obj
 0001:0000adc0       $LN17                      0040bdc0     stdafx.obj
 0001:0000adc8       $LN16                      0040bdc8     stdafx.obj
 0001:0000adec       $LN15                      0040bdec     stdafx.obj
 0001:0000adf5       $LN14                      0040bdf5     stdafx.obj
 0001:0000adfc       $LN13                      0040bdfc     stdafx.obj
 0001:0000af98       $LN10                      0040bf98     stdafx.obj
 0001:0000afa0       $LN9                       0040bfa0     stdafx.obj
 0001:0000afac       $LN7                       0040bfac     stdafx.obj
 0001:0000c13c       $LN23                      0040d13c     utilities.obj
 0001:0000c144       $LN22                      0040d144     utilities.obj
 0001:0000c150       $LN21                      0040d150     utilities.obj
 0001:0000ceec       $LN22                      0040deec     mfcs140ud:nolib.obj
 0001:0000cef4       $LN21                      0040def4     mfcs140ud:nolib.obj
 0001:0000cf0c       $LN20                      0040df0c     mfcs140ud:nolib.obj
 0001:0000cf16       $LN19                      0040df16     mfcs140ud:nolib.obj
 0001:0000d22c       $LN36                      0040e22c     mfcs140ud:nolib.obj
 0001:0000d234       $LN35                      0040e234     mfcs140ud:nolib.obj
 0001:0000d27c       $LN34                      0040e27c     mfcs140ud:nolib.obj
 0001:0000d293       $LN33                      0040e293     mfcs140ud:nolib.obj
 0001:0000d29c       $LN32                      0040e29c     mfcs140ud:nolib.obj
 0001:0000d2af       $LN31                      0040e2af     mfcs140ud:nolib.obj
 0001:0000d2b6       $LN30                      0040e2b6     mfcs140ud:nolib.obj
 0001:0000d2c0       $LN29                      0040e2c0     mfcs140ud:nolib.obj
 0001:0000d2d0       ?pre_c_initialization@@YAHXZ 0040e2d0 f   msvcrtd:exe_wwinmain.obj
 0001:0000d380       ?post_pgo_initialization@@YAHXZ 0040e380 f   msvcrtd:exe_wwinmain.obj
 0001:0000d390       ?pre_cpp_initialization@@YAXXZ 0040e390 f   msvcrtd:exe_wwinmain.obj
 0001:0000d3b0       ?__scrt_common_main@@YAHXZ 0040e3b0 f   msvcrtd:exe_wwinmain.obj
 0001:0000d3c0       ?__scrt_common_main_seh@@YAHXZ 0040e3c0 f   msvcrtd:exe_wwinmain.obj
 0001:0000d610       ?invoke_main@@YAHXZ        0040e610 f   msvcrtd:exe_wwinmain.obj
 0001:0000d6d0       ?find_pe_section@@YAPAU_IMAGE_SECTION_HEADER@@QAEI@Z 0040e6d0 f   msvcrtd:utility.obj
 0001:0000d770       ?is_potentially_valid_image_base@@YA_NQAX@Z 0040e770 f   msvcrtd:utility.obj
 0001:0000df80       $$000000                   0040ef80     msvcrtd:chkstk.obj
 0001:0000e000       ?DebuggerProbe@@YA_NK@Z    0040f000 f   msvcrtd:error.obj
 0001:0000e040       ?DebuggerRuntime@@YA_NKHPAXPB_W@Z 0040f040 f   msvcrtd:error.obj
 0001:0000e280       ?_getMemBlockDataString@@YAXPAD0PBDI@Z 0040f280 f   msvcrtd:error.obj
 0001:0000e2f0       ?_strlen_priv@@YAIPBD@Z    0040f2f0 f   msvcrtd:error.obj
 0001:0000e310       ?failwithmessage@@YAXPAXHHPBD@Z 0040f310 f   msvcrtd:error.obj
 0001:0000e510       ?notify_debugger@@YAXABUtagEXCEPTION_VISUALCPP_DEBUG_INFO@@@Z 0040f510 f   msvcrtd:error.obj
 0001:0000e6b0       ?__scrt_initialize_thread_safe_statics@@YAHXZ 0040f6b0 f   msvcrtd:thread_safe_statics.obj
 0001:0000e6f0       ?__scrt_initialize_thread_safe_statics_platform_specific@@YAXXZ 0040f6f0 f   msvcrtd:thread_safe_statics.obj
 0001:0000e7a0       ?__scrt_uninitialize_thread_safe_statics@@YAXXZ 0040f7a0 f   msvcrtd:thread_safe_statics.obj
 0001:0000eaa0       ?ArrayUnwindFilter@@YAHPAU_EXCEPTION_POINTERS@@@Z 0040faa0 f   msvcrtd:ehvecdtr.obj
 0001:0000ec80       ___get_entropy             0040fc80 f   msvcrtd:gs_support.obj
 0001:0000f9d0       ?GetPdbDll@@YAPAUHINSTANCE__@@XZ 004109d0 f   msvcrtd:pdblkup.obj
 0001:0000fb10       ?GetPdbDllFromInstallPath@@YAPAUHINSTANCE__@@XZ 00410b10 f   msvcrtd:pdblkup.obj
 0001:0000fd70       ?GetPdbDllPathFromFilePath@@YAHPB_WPA_WI@Z 00410d70 f   msvcrtd:pdblkup.obj
 0001:00010753       _memmove_s                 00411753 f   atls:atlbase.obj
 0001:000109e8       $LN6                       004119e8     mfcs140ud:appmodul.obj
 0001:000109f0       $LN5                       004119f0     mfcs140ud:appmodul.obj
 0001:000109fc       $LN4                       004119fc     mfcs140ud:appmodul.obj
 0001:00010c50       __unwindfunclet$?InitInstance@Cmcf6App@@UAEHXZ$0 00411c50 f   mcf6.obj
 0001:00010c5b       __ehhandler$?InitInstance@Cmcf6App@@UAEHXZ 00411c5b f   mcf6.obj
 0001:00010c90       __unwindfunclet$??0Cmcf6Dlg@@QAE@PAVCWnd@@@Z$0 00411c90 f   mcf6Dlg.obj
 0001:00010c98       __unwindfunclet$??0Cmcf6Dlg@@QAE@PAVCWnd@@@Z$1 00411c98 f   mcf6Dlg.obj
 0001:00010ca6       __unwindfunclet$??0Cmcf6Dlg@@QAE@PAVCWnd@@@Z$2 00411ca6 f   mcf6Dlg.obj
 0001:00010cb4       __unwindfunclet$??0Cmcf6Dlg@@QAE@PAVCWnd@@@Z$3 00411cb4 f   mcf6Dlg.obj
 0001:00010cc2       __unwindfunclet$??0Cmcf6Dlg@@QAE@PAVCWnd@@@Z$4 00411cc2 f   mcf6Dlg.obj
 0001:00010cd0       __unwindfunclet$??0Cmcf6Dlg@@QAE@PAVCWnd@@@Z$5 00411cd0 f   mcf6Dlg.obj
 0001:00010cde       __unwindfunclet$??0Cmcf6Dlg@@QAE@PAVCWnd@@@Z$6 00411cde f   mcf6Dlg.obj
 0001:00010cec       __unwindfunclet$??0Cmcf6Dlg@@QAE@PAVCWnd@@@Z$7 00411cec f   mcf6Dlg.obj
 0001:00010cfa       __unwindfunclet$??0Cmcf6Dlg@@QAE@PAVCWnd@@@Z$8 00411cfa f   mcf6Dlg.obj
 0001:00010d08       __unwindfunclet$??0Cmcf6Dlg@@QAE@PAVCWnd@@@Z$9 00411d08 f   mcf6Dlg.obj
 0001:00010d16       __unwindfunclet$??0Cmcf6Dlg@@QAE@PAVCWnd@@@Z$10 00411d16 f   mcf6Dlg.obj
 0001:00010d24       __unwindfunclet$??0Cmcf6Dlg@@QAE@PAVCWnd@@@Z$11 00411d24 f   mcf6Dlg.obj
 0001:00010d32       __unwindfunclet$??0Cmcf6Dlg@@QAE@PAVCWnd@@@Z$12 00411d32 f   mcf6Dlg.obj
 0001:00010d40       __unwindfunclet$??0Cmcf6Dlg@@QAE@PAVCWnd@@@Z$13 00411d40 f   mcf6Dlg.obj
 0001:00010d4e       __unwindfunclet$??0Cmcf6Dlg@@QAE@PAVCWnd@@@Z$14 00411d4e f   mcf6Dlg.obj
 0001:00010d5c       __unwindfunclet$??0Cmcf6Dlg@@QAE@PAVCWnd@@@Z$15 00411d5c f   mcf6Dlg.obj
 0001:00010d6a       __unwindfunclet$??0Cmcf6Dlg@@QAE@PAVCWnd@@@Z$16 00411d6a f   mcf6Dlg.obj
 0001:00010d78       __unwindfunclet$??0Cmcf6Dlg@@QAE@PAVCWnd@@@Z$17 00411d78 f   mcf6Dlg.obj
 0001:00010d86       __unwindfunclet$??0Cmcf6Dlg@@QAE@PAVCWnd@@@Z$18 00411d86 f   mcf6Dlg.obj
 0001:00010d94       __unwindfunclet$??0Cmcf6Dlg@@QAE@PAVCWnd@@@Z$19 00411d94 f   mcf6Dlg.obj
 0001:00010da2       __unwindfunclet$??0Cmcf6Dlg@@QAE@PAVCWnd@@@Z$20 00411da2 f   mcf6Dlg.obj
 0001:00010db0       __unwindfunclet$??0Cmcf6Dlg@@QAE@PAVCWnd@@@Z$21 00411db0 f   mcf6Dlg.obj
 0001:00010dbe       __unwindfunclet$??0Cmcf6Dlg@@QAE@PAVCWnd@@@Z$22 00411dbe f   mcf6Dlg.obj
 0001:00010dcc       __unwindfunclet$??0Cmcf6Dlg@@QAE@PAVCWnd@@@Z$23 00411dcc f   mcf6Dlg.obj
 0001:00010dda       __ehhandler$??0Cmcf6Dlg@@QAE@PAVCWnd@@@Z 00411dda f   mcf6Dlg.obj
 0001:00010e00       __unwindfunclet$??HATL@@YA?AV?$CStringT@_WV?$StrTraitMFC_DLL@_WV?$ChTraitsCRT@_W@ATL@@@@@0@PB_WABV10@@Z$0 00411e00 f   mcf6Dlg.obj
 0001:00010e12       __ehhandler$??HATL@@YA?AV?$CStringT@_WV?$StrTraitMFC_DLL@_WV?$ChTraitsCRT@_W@ATL@@@@@0@PB_WABV10@@Z 00411e12 f   mcf6Dlg.obj
 0001:00010e30       __unwindfunclet$?OnBnClickedButton4@Cmcf6Dlg@@QAEXXZ$0 00411e30 f   mcf6Dlg.obj
 0001:00010e3b       __ehhandler$?OnBnClickedButton4@Cmcf6Dlg@@QAEXXZ 00411e3b f   mcf6Dlg.obj
 0001:00010e70       __unwindfunclet$?OnInitDialog@Cmcf6Dlg@@MAEHXZ$0 00411e70 f   mcf6Dlg.obj
 0001:00010e82       __unwindfunclet$?OnInitDialog@Cmcf6Dlg@@MAEHXZ$1 00411e82 f   mcf6Dlg.obj
 0001:00010e97       __ehhandler$?OnInitDialog@Cmcf6Dlg@@MAEHXZ 00411e97 f   mcf6Dlg.obj
 0001:00010ec0       __unwindfunclet$?OnPaint@Cmcf6Dlg@@IAEXXZ$0 00411ec0 f   mcf6Dlg.obj
 0001:00010ec8       __ehhandler$?OnPaint@Cmcf6Dlg@@IAEXXZ 00411ec8 f   mcf6Dlg.obj
 0001:00010ef0       __unwindfunclet$?OnSysCommand@Cmcf6Dlg@@IAEXIJ@Z$0 00411ef0 f   mcf6Dlg.obj
 0001:00010efb       __ehhandler$?OnSysCommand@Cmcf6Dlg@@IAEXIJ@Z 00411efb f   mcf6Dlg.obj
 0001:00010f20       __unwindfunclet$?lixsinff_CapThread@@YGKPAX@Z$0 00411f20 f   mcf6Dlg.obj
 0001:00010f32       __unwindfunclet$?lixsinff_CapThread@@YGKPAX@Z$1 00411f32 f   mcf6Dlg.obj
 0001:00010f44       __unwindfunclet$?lixsinff_CapThread@@YGKPAX@Z$2 00411f44 f   mcf6Dlg.obj
 0001:00010f56       __unwindfunclet$?lixsinff_CapThread@@YGKPAX@Z$3 00411f56 f   mcf6Dlg.obj
 0001:00010f68       __unwindfunclet$?lixsinff_CapThread@@YGKPAX@Z$4 00411f68 f   mcf6Dlg.obj
 0001:00010f7d       __unwindfunclet$?lixsinff_CapThread@@YGKPAX@Z$5 00411f7d f   mcf6Dlg.obj
 0001:00010f92       __unwindfunclet$?lixsinff_CapThread@@YGKPAX@Z$6 00411f92 f   mcf6Dlg.obj
 0001:00010fa7       __ehhandler$?lixsinff_CapThread@@YGKPAX@Z 00411fa7 f   mcf6Dlg.obj
 0001:00010fd0       __unwindfunclet$?lixsniff_readFile@Cmcf6Dlg@@QAEHV?$CStringT@_WV?$StrTraitMFC_DLL@_WV?$ChTraitsCRT@_W@ATL@@@@@ATL@@@Z$0 00411fd0 f   mcf6Dlg.obj
 0001:00010fe2       __unwindfunclet$?lixsniff_readFile@Cmcf6Dlg@@QAEHV?$CStringT@_WV?$StrTraitMFC_DLL@_WV?$ChTraitsCRT@_W@ATL@@@@@ATL@@@Z$1 00411fe2 f   mcf6Dlg.obj
 0001:00010ff4       __unwindfunclet$?lixsniff_readFile@Cmcf6Dlg@@QAEHV?$CStringT@_WV?$StrTraitMFC_DLL@_WV?$ChTraitsCRT@_W@ATL@@@@@ATL@@@Z$2 00411ff4 f   mcf6Dlg.obj
 0001:00011006       __unwindfunclet$?lixsniff_readFile@Cmcf6Dlg@@QAEHV?$CStringT@_WV?$StrTraitMFC_DLL@_WV?$ChTraitsCRT@_W@ATL@@@@@ATL@@@Z$3 00412006 f   mcf6Dlg.obj
 0001:00011018       __unwindfunclet$?lixsniff_readFile@Cmcf6Dlg@@QAEHV?$CStringT@_WV?$StrTraitMFC_DLL@_WV?$ChTraitsCRT@_W@ATL@@@@@ATL@@@Z$4 00412018 f   mcf6Dlg.obj
 0001:0001102a       __unwindfunclet$?lixsniff_readFile@Cmcf6Dlg@@QAEHV?$CStringT@_WV?$StrTraitMFC_DLL@_WV?$ChTraitsCRT@_W@ATL@@@@@ATL@@@Z$5 0041202a f   mcf6Dlg.obj
 0001:0001103f       __unwindfunclet$?lixsniff_readFile@Cmcf6Dlg@@QAEHV?$CStringT@_WV?$StrTraitMFC_DLL@_WV?$ChTraitsCRT@_W@ATL@@@@@ATL@@@Z$6 0041203f f   mcf6Dlg.obj
 0001:00011054       __unwindfunclet$?lixsniff_readFile@Cmcf6Dlg@@QAEHV?$CStringT@_WV?$StrTraitMFC_DLL@_WV?$ChTraitsCRT@_W@ATL@@@@@ATL@@@Z$7 00412054 f   mcf6Dlg.obj
 0001:00011069       __unwindfunclet$?lixsniff_readFile@Cmcf6Dlg@@QAEHV?$CStringT@_WV?$StrTraitMFC_DLL@_WV?$ChTraitsCRT@_W@ATL@@@@@ATL@@@Z$8 00412069 f   mcf6Dlg.obj
 0001:0001107e       __unwindfunclet$?lixsniff_readFile@Cmcf6Dlg@@QAEHV?$CStringT@_WV?$StrTraitMFC_DLL@_WV?$ChTraitsCRT@_W@ATL@@@@@ATL@@@Z$9 0041207e f   mcf6Dlg.obj
 0001:00011093       __ehhandler$?lixsniff_readFile@Cmcf6Dlg@@QAEHV?$CStringT@_WV?$StrTraitMFC_DLL@_WV?$ChTraitsCRT@_W@ATL@@@@@ATL@@@Z 00412093 f   mcf6Dlg.obj
 0001:000110c0       __unwindfunclet$?lixsniff_saveFile@Cmcf6Dlg@@QAEHXZ$0 004120c0 f   mcf6Dlg.obj
 0001:000110c8       __unwindfunclet$?lixsniff_saveFile@Cmcf6Dlg@@QAEHXZ$1 004120c8 f   mcf6Dlg.obj
 0001:000110dd       __unwindfunclet$?lixsniff_saveFile@Cmcf6Dlg@@QAEHXZ$2 004120dd f   mcf6Dlg.obj
 0001:000110e8       __unwindfunclet$?lixsniff_saveFile@Cmcf6Dlg@@QAEHXZ$3 004120e8 f   mcf6Dlg.obj
 0001:000110fd       __ehhandler$?lixsniff_saveFile@Cmcf6Dlg@@QAEHXZ 004120fd f   mcf6Dlg.obj
 0001:00011130       __unwindfunclet$?lixsniff_startCap@Cmcf6Dlg@@QAEHXZ$0 00412130 f   mcf6Dlg.obj
 0001:00011145       __unwindfunclet$?lixsniff_startCap@Cmcf6Dlg@@QAEHXZ$1 00412145 f   mcf6Dlg.obj
 0001:0001115a       __unwindfunclet$?lixsniff_startCap@Cmcf6Dlg@@QAEHXZ$2 0041215a f   mcf6Dlg.obj
 0001:0001116c       __unwindfunclet$?lixsniff_startCap@Cmcf6Dlg@@QAEHXZ$3 0041216c f   mcf6Dlg.obj
 0001:00011177       __unwindfunclet$?lixsniff_startCap@Cmcf6Dlg@@QAEHXZ$4 00412177 f   mcf6Dlg.obj
 0001:0001118c       __ehhandler$?lixsniff_startCap@Cmcf6Dlg@@QAEHXZ 0041218c f   mcf6Dlg.obj
 0001:000111c0       __unwindfunclet$?lixsniff_updateEdit@Cmcf6Dlg@@QAEHH@Z$0 004121c0 f   mcf6Dlg.obj
 0001:000111d2       __ehhandler$?lixsniff_updateEdit@Cmcf6Dlg@@QAEHH@Z 004121d2 f   mcf6Dlg.obj
 0001:000111f0       __unwindfunclet$?lixsniff_updateNPacket@Cmcf6Dlg@@QAEHXZ$0 004121f0 f   mcf6Dlg.obj
 0001:00011202       __ehhandler$?lixsniff_updateNPacket@Cmcf6Dlg@@QAEHXZ 00412202 f   mcf6Dlg.obj
 0001:00011220       __unwindfunclet$?lixsniff_updateTree@Cmcf6Dlg@@QAEHH@Z$0 00412220 f   mcf6Dlg.obj
 0001:00011232       __unwindfunclet$?lixsniff_updateTree@Cmcf6Dlg@@QAEHH@Z$1 00412232 f   mcf6Dlg.obj
 0001:00011247       __unwindfunclet$?lixsniff_updateTree@Cmcf6Dlg@@QAEHH@Z$2 00412247 f   mcf6Dlg.obj
 0001:0001125c       __ehhandler$?lixsniff_updateTree@Cmcf6Dlg@@QAEHH@Z 0041225c f   mcf6Dlg.obj
 0001:00011280       __unwindfunclet$??0_ATL_WIN_MODULE70@ATL@@QAE@XZ$0 00412280 f   stdafx.obj
 0001:0001128b       __ehhandler$??0_ATL_WIN_MODULE70@ATL@@QAE@XZ 0041228b f   stdafx.obj
 0001:000112b0       __ehhandler$??1?$CSimpleArray@GV?$CSimpleArrayEqualHelper@G@ATL@@@ATL@@QAE@XZ 004122b0 f   stdafx.obj
 0001:000112d0       __ehhandler$??1CAtlComModule@ATL@@QAE@XZ 004122d0 f   stdafx.obj
 0001:000112f0       __ehhandler$??1CAtlWinModule@ATL@@QAE@XZ 004122f0 f   stdafx.obj
 0001:00011310       __unwindfunclet$??RCTraceFileAndLineInfo@ATL@@QBAXHIPB_WZZ$0 00412310 f   stdafx.obj
 0001:00011318       __ehhandler$??RCTraceFileAndLineInfo@ATL@@QBAXHIPB_WZZ 00412318 f   stdafx.obj
 0001:00011340       __unwindfunclet$?TraceV@CTrace@ATL@@SAXPBDHIIPB_WPAD@Z$0 00412340 f   stdafx.obj
 0001:00011348       __ehhandler$?TraceV@CTrace@ATL@@SAXPBDHIIPB_WPAD@Z 00412348 f   stdafx.obj
 0001:00011370       __ehhandler$??_Estringdispid@CComTypeInfoHolder@ATL@@QAEPAXI@Z 00412370 f   mfcs140ud:nolib.obj
 0001:00011390       ??__FtheApp@@YAXXZ         00412390 f   mcf6.obj
 0001:000113d0       ??__F_AtlComModule@ATL@@YAXXZ 004123d0 f   stdafx.obj
 0001:00011410       ??__F_AtlWinModule@ATL@@YAXXZ 00412410 f   stdafx.obj
 0001:000114d0       ??__F_AtlComModule@ATL@@YAXXZ 004124d0 f   mfcs140ud:nolib.obj
 0001:000114f0       ??__F_AtlWinModule@ATL@@YAXXZ 004124f0 f   mfcs140ud:nolib.obj
 0001:00011510       ??__F_AtlComModule@ATL@@YAXXZ 00412510 f   mfcs140ud:stdafx.obj
 0001:00011530       ??__F_AtlWinModule@ATL@@YAXXZ 00412530 f   mfcs140ud:stdafx.obj
 0001:00011546       ??__F_AtlBaseModule@ATL@@YAXXZ 00412546 f   atls:atlbase.obj
 0001:00011550       ??__F_AtlComModule@ATL@@YAXXZ 00412550 f   mfcs140ud:appmodul.obj
 0001:00011570       ??__F_AtlWinModule@ATL@@YAXXZ 00412570 f   mfcs140ud:appmodul.obj
 0002:000005dc       ?pre_cpp_initializer@@3P6AXXZA 004135dc     msvcrtd:exe_wwinmain.obj
 0002:000005e0       ?_AtlBaseModule$initializer$@ATL@@3P6AXXZA 004135e0     atls:atlbase.obj
 0002:000005e4       ?_afxInitAppState$initializer$@@3P6AXXZA 004135e4     mfcs140ud:appmodul.obj
 0002:000005e8       ?theApp$initializer$@@3P6AXXZA 004135e8     mcf6.obj
 0002:000005ec       ?atlTraceException$initializer$@ATL@@3P6AXXZA 004135ec     mcf6Dlg.obj
 0002:000005f0       ?atlTraceString$initializer$@ATL@@3P6AXXZA 004135f0     mcf6Dlg.obj
 0002:000005f4       ?atlTraceGeneral$initializer$@ATL@@3P6AXXZA 004135f4     stdafx.obj
 0002:000005f8       ?atlTraceCOM$initializer$@ATL@@3P6AXXZA 004135f8     stdafx.obj
 0002:000005fc       ?atlTraceQI$initializer$@ATL@@3P6AXXZA 004135fc     stdafx.obj
 0002:00000600       ?atlTraceRegistrar$initializer$@ATL@@3P6AXXZA 00413600     stdafx.obj
 0002:00000604       ?atlTraceRefcount$initializer$@ATL@@3P6AXXZA 00413604     stdafx.obj
 0002:00000608       ?atlTraceWindowing$initializer$@ATL@@3P6AXXZA 00413608     stdafx.obj
 0002:0000060c       ?atlTraceControls$initializer$@ATL@@3P6AXXZA 0041360c     stdafx.obj
 0002:00000610       ?atlTraceHosting$initializer$@ATL@@3P6AXXZA 00413610     stdafx.obj
 0002:00000614       ?atlTraceDBClient$initializer$@ATL@@3P6AXXZA 00413614     stdafx.obj
 0002:00000618       ?atlTraceDBProvider$initializer$@ATL@@3P6AXXZA 00413618     stdafx.obj
 0002:0000061c       ?atlTraceSnapin$initializer$@ATL@@3P6AXXZA 0041361c     stdafx.obj
 0002:00000620       ?atlTraceNotImpl$initializer$@ATL@@3P6AXXZA 00413620     stdafx.obj
 0002:00000624       ?atlTraceAllocation$initializer$@ATL@@3P6AXXZA 00413624     stdafx.obj
 0002:00000628       ?atlTraceTime$initializer$@ATL@@3P6AXXZA 00413628     stdafx.obj
 0002:0000062c       ?atlTraceCache$initializer$@ATL@@3P6AXXZA 0041362c     stdafx.obj
 0002:00000630       ?atlTraceStencil$initializer$@ATL@@3P6AXXZA 00413630     stdafx.obj
 0002:00000634       ?atlTraceMap$initializer$@ATL@@3P6AXXZA 00413634     stdafx.obj
 0002:00000638       ?atlTraceUtil$initializer$@ATL@@3P6AXXZA 00413638     stdafx.obj
 0002:0000063c       ?atlTraceSecurity$initializer$@ATL@@3P6AXXZA 0041363c     stdafx.obj
 0002:00000640       ?atlTraceSync$initializer$@ATL@@3P6AXXZA 00413640     stdafx.obj
 0002:00000644       ?atlTraceISAPI$initializer$@ATL@@3P6AXXZA 00413644     stdafx.obj
 0002:00000648       ?_AtlComModule$initializer$@ATL@@3P6AXXZA 00413648     stdafx.obj
 0002:0000064c       ?_AtlWinModule$initializer$@ATL@@3P6AXXZA 0041364c     stdafx.obj
 0002:00000650       ?InitializeCAtlStringMgr$initializer$@ATLImplementationDetails@ATL@@3P6AXXZA 00413650     stdafx.obj
 0002:0000065c       ?pre_c_initializer@@3P6AHXZA 0041365c     msvcrtd:exe_wwinmain.obj
 0002:00000660       ?post_pgo_initializer@@3P6AHXZA 00413660     msvcrtd:exe_wwinmain.obj
 0002:00000664       ?__scrt_initialize_tss_var@@3P6AHXZA 00413664     msvcrtd:thread_safe_statics.obj
 0002:00000690       ?_messageEntries@?1??GetThisMessageMap@Cmcf6App@@KGPBUAFX_MSGMAP@@XZ@4QBUAFX_MSGMAP_ENTRY@@B 00413690     mcf6.obj
 0002:000006c0       ?messageMap@?1??GetThisMessageMap@Cmcf6App@@KGPBUAFX_MSGMAP@@XZ@4U3@B 004136c0     mcf6.obj
 0002:00000808       ?_messageEntries@?1??GetThisMessageMap@CAboutDlg@@KGPBUAFX_MSGMAP@@XZ@4QBUAFX_MSGMAP_ENTRY@@B 00413808     mcf6Dlg.obj
 0002:00000820       ?messageMap@?1??GetThisMessageMap@CAboutDlg@@KGPBUAFX_MSGMAP@@XZ@4U3@B 00413820     mcf6Dlg.obj
 0002:00000828       ?_messageEntries@?1??GetThisMessageMap@Cmcf6Dlg@@KGPBUAFX_MSGMAP@@XZ@4QBUAFX_MSGMAP_ENTRY@@B 00413828     mcf6Dlg.obj
 0002:00000918       ?messageMap@?1??GetThisMessageMap@Cmcf6Dlg@@KGPBUAFX_MSGMAP@@XZ@4U3@B 00413918     mcf6Dlg.obj
 0002:0000486c       ?_RTC_ErrorMessages@@3QBQBDB 0041786c     msvcrtd:error.obj
 0002:00004884       ?_RTC_NoFalsePositives@@3QBHB 00417884     msvcrtd:error.obj
 0002:0000489c       ?stack_premsg@@3QBDB       0041789c     msvcrtd:error.obj
 0002:000048b8       ?stack_postmsg@@3QBDB      004178b8     msvcrtd:error.obj
 0002:000048cc       ?uninit_premsg@@3QBDB      004178cc     msvcrtd:error.obj
 0002:000048dc       ?uninit_postmsg@@3QBDB     004178dc     msvcrtd:error.obj
 0002:00004f4c       _GS_ExceptionPointers      00417f4c     msvcrtd:gs_report.obj
 0002:00004f54       ?_RTC_errlist@@3QBQBDB     00417f54     msvcrtd:userapi.obj
 0002:00005014       ?mspdbName@@3QB_WB         00418014     msvcrtd:pdblkup.obj
 0002:00005038       ?debugCrtFileName@@3QB_WB  00418038     msvcrtd:pdblkup.obj
 0002:00005184       ?dllExt@?1??GetPdbDllPathFromFilePath@@YAHPB_WPA_WI@Z@4QB_WB 00418184     msvcrtd:pdblkup.obj
 0002:0000518c       ?mspdbFilename@?1??GetPdbDllPathFromFilePath@@YAHPB_WPA_WI@Z@4QB_WB 0041818c     msvcrtd:pdblkup.obj
 0002:00005c3c       __RTC_InitBase.rtc$IMZ     00418c3c     mcf6.obj
 0002:00005c40       __RTC_InitBase.rtc$IMZ     00418c40     mcf6Dlg.obj
 0002:00005c44       __RTC_InitBase.rtc$IMZ     00418c44     stdafx.obj
 0002:00005c48       __RTC_InitBase.rtc$IMZ     00418c48     utilities.obj
 0002:00005c4c       __RTC_InitBase.rtc$IMZ     00418c4c     mfcs140ud:nolib.obj
 0002:00005c50       __RTC_InitBase.rtc$IMZ     00418c50     mfcs140ud:stdafx.obj
 0002:00005c54       __RTC_InitBase.rtc$IMZ     00418c54     mfcs140ud:appmodul.obj
 0002:00005c60       __RTC_Shutdown.rtc$TMZ     00418c60     mcf6.obj
 0002:00005c64       __RTC_Shutdown.rtc$TMZ     00418c64     mcf6Dlg.obj
 0002:00005c68       __RTC_Shutdown.rtc$TMZ     00418c68     stdafx.obj
 0002:00005c6c       __RTC_Shutdown.rtc$TMZ     00418c6c     utilities.obj
 0002:00005c70       __RTC_Shutdown.rtc$TMZ     00418c70     mfcs140ud:nolib.obj
 0002:00005c74       __RTC_Shutdown.rtc$TMZ     00418c74     mfcs140ud:stdafx.obj
 0002:00005c78       __RTC_Shutdown.rtc$TMZ     00418c78     mfcs140ud:appmodul.obj
 0002:00005c90       __unwindtable$?InitInstance@Cmcf6App@@UAEHXZ 00418c90     mcf6.obj
 0002:00005c98       __ehfuncinfo$?InitInstance@Cmcf6App@@UAEHXZ 00418c98     mcf6.obj
 0002:00005cbc       __unwindtable$??HATL@@YA?AV?$CStringT@_WV?$StrTraitMFC_DLL@_WV?$ChTraitsCRT@_W@ATL@@@@@0@PB_WABV10@@Z 00418cbc     mcf6Dlg.obj
 0002:00005cc4       __ehfuncinfo$??HATL@@YA?AV?$CStringT@_WV?$StrTraitMFC_DLL@_WV?$ChTraitsCRT@_W@ATL@@@@@0@PB_WABV10@@Z 00418cc4     mcf6Dlg.obj
 0002:00005ce8       __ehfuncinfo$??0Cmcf6Dlg@@QAE@PAVCWnd@@@Z 00418ce8     mcf6Dlg.obj
 0002:00005d0c       __unwindtable$??0Cmcf6Dlg@@QAE@PAVCWnd@@@Z 00418d0c     mcf6Dlg.obj
 0002:00005dcc       __ehfuncinfo$?lixsniff_startCap@Cmcf6Dlg@@QAEHXZ 00418dcc     mcf6Dlg.obj
 0002:00005df0       __unwindtable$?lixsniff_startCap@Cmcf6Dlg@@QAEHXZ 00418df0     mcf6Dlg.obj
 0002:00005e18       __unwindtable$?lixsniff_updateTree@Cmcf6Dlg@@QAEHH@Z 00418e18     mcf6Dlg.obj
 0002:00005e30       __ehfuncinfo$?lixsniff_updateTree@Cmcf6Dlg@@QAEHH@Z 00418e30     mcf6Dlg.obj
 0002:00005e54       __unwindtable$?lixsniff_updateEdit@Cmcf6Dlg@@QAEHH@Z 00418e54     mcf6Dlg.obj
 0002:00005e5c       __ehfuncinfo$?lixsniff_updateEdit@Cmcf6Dlg@@QAEHH@Z 00418e5c     mcf6Dlg.obj
 0002:00005e80       __unwindtable$?lixsniff_updateNPacket@Cmcf6Dlg@@QAEHXZ 00418e80     mcf6Dlg.obj
 0002:00005e88       __ehfuncinfo$?lixsniff_updateNPacket@Cmcf6Dlg@@QAEHXZ 00418e88     mcf6Dlg.obj
 0002:00005eac       __unwindtable$?lixsniff_saveFile@Cmcf6Dlg@@QAEHXZ 00418eac     mcf6Dlg.obj
 0002:00005ecc       __ehfuncinfo$?lixsniff_saveFile@Cmcf6Dlg@@QAEHXZ 00418ecc     mcf6Dlg.obj
 0002:00005ef0       __ehfuncinfo$?lixsniff_readFile@Cmcf6Dlg@@QAEHV?$CStringT@_WV?$StrTraitMFC_DLL@_WV?$ChTraitsCRT@_W@ATL@@@@@ATL@@@Z 00418ef0     mcf6Dlg.obj
 0002:00005f14       __unwindtable$?lixsniff_readFile@Cmcf6Dlg@@QAEHV?$CStringT@_WV?$StrTraitMFC_DLL@_WV?$ChTraitsCRT@_W@ATL@@@@@ATL@@@Z 00418f14     mcf6Dlg.obj
 0002:00005f64       __unwindtable$?OnInitDialog@Cmcf6Dlg@@MAEHXZ 00418f64     mcf6Dlg.obj
 0002:00005f74       __ehfuncinfo$?OnInitDialog@Cmcf6Dlg@@MAEHXZ 00418f74     mcf6Dlg.obj
 0002:00005f98       __unwindtable$?OnSysCommand@Cmcf6Dlg@@IAEXIJ@Z 00418f98     mcf6Dlg.obj
 0002:00005fa0       __ehfuncinfo$?OnSysCommand@Cmcf6Dlg@@IAEXIJ@Z 00418fa0     mcf6Dlg.obj
 0002:00005fc4       __unwindtable$?OnPaint@Cmcf6Dlg@@IAEXXZ 00418fc4     mcf6Dlg.obj
 0002:00005fcc       __ehfuncinfo$?OnPaint@Cmcf6Dlg@@IAEXXZ 00418fcc     mcf6Dlg.obj
 0002:00005ff0       __unwindtable$?OnBnClickedButton4@Cmcf6Dlg@@QAEXXZ 00418ff0     mcf6Dlg.obj
 0002:00005ff8       __ehfuncinfo$?OnBnClickedButton4@Cmcf6Dlg@@QAEXXZ 00418ff8     mcf6Dlg.obj
 0002:0000601c       __ehfuncinfo$?lixsinff_CapThread@@YGKPAX@Z 0041901c     mcf6Dlg.obj
 0002:00006040       __unwindtable$?lixsinff_CapThread@@YGKPAX@Z 00419040     mcf6Dlg.obj
 0002:00006078       __unwindtable$?TraceV@CTrace@ATL@@SAXPBDHIIPB_WPAD@Z 00419078     stdafx.obj
 0002:00006080       __ehfuncinfo$?TraceV@CTrace@ATL@@SAXPBDHIIPB_WPAD@Z 00419080     stdafx.obj
 0002:000060a4       __unwindtable$??RCTraceFileAndLineInfo@ATL@@QBAXHIPB_WZZ 004190a4     stdafx.obj
 0002:000060ac       __ehfuncinfo$??RCTraceFileAndLineInfo@ATL@@QBAXHIPB_WZZ 004190ac     stdafx.obj
 0002:000060d0       __ehfuncinfo$??1?$CSimpleArray@GV?$CSimpleArrayEqualHelper@G@ATL@@@ATL@@QAE@XZ 004190d0     stdafx.obj
 0002:000060f4       __unwindtable$??0_ATL_WIN_MODULE70@ATL@@QAE@XZ 004190f4     stdafx.obj
 0002:000060fc       __ehfuncinfo$??0_ATL_WIN_MODULE70@ATL@@QAE@XZ 004190fc     stdafx.obj
 0002:00006120       __ehfuncinfo$??1CAtlComModule@ATL@@QAE@XZ 00419120     stdafx.obj
 0002:00006144       __ehfuncinfo$??1CAtlWinModule@ATL@@QAE@XZ 00419144     stdafx.obj
 0002:00006168       __sehtable$_WinbaseIsolationAwarePrivatetRgzlnPgpgk@0 00419168     mfcs140ud:nolib.obj
 0002:00006188       __sehtable$_IsolationAwareUnregisterClassW@8 00419188     mfcs140ud:nolib.obj
 0002:000061a4       __ehfuncinfo$??_Estringdispid@CComTypeInfoHolder@ATL@@QAEPAXI@Z 004191a4     mfcs140ud:nolib.obj
 0002:000061c8       __sehtable$?__scrt_common_main_seh@@YAHXZ 004191c8     msvcrtd:exe_wwinmain.obj
 0002:000061e8       __sehtable$___scrt_is_nonwritable_in_current_image 004191e8     msvcrtd:utility.obj
 0002:00006208       __sehtable$?notify_debugger@@YAXABUtagEXCEPTION_VISUALCPP_DEBUG_INFO@@@Z 00419208     msvcrtd:error.obj
 0002:00006228       __sehtable$??_M@YGXPAXIIP6EX0@Z@Z 00419228     msvcrtd:ehvecdtr.obj
 0002:00006248       __sehtable$?__ArrayUnwind@@YGXPAXIIP6EX0@Z@Z 00419248     msvcrtd:ehvecdtr.obj
 0002:000069c4       .idata$6                   004199c4     wpcap:wpcap.dll
 0002:000069ce       .idata$6                   004199ce     ws2_32:WS2_32.dll
 0002:000069da       .idata$6                   004199da     mfc140ud:mfc140ud.dll
 0002:00006d76       .idata$6                   00419d76     kernel32:KERNEL32.dll
 0002:00006dba       .idata$6                   00419dba     user32:USER32.dll
 0002:00006dde       .idata$6                   00419dde     comctl32:COMCTL32.dll
 0002:00006dec       .idata$6                   00419dec     oleaut32:OLEAUT32.dll
 0002:00006eea       .idata$6                   00419eea     vcruntimed:VCRUNTIME140D.dll
 0002:00007290       .idata$6                   0041a290     ucrtd:ucrtbased.dll
 0003:00002460       ?is_initialized_as_dll@@3_NA 0041d460     msvcrtd:utility.obj
 0003:00002461       ?module_local_atexit_table_initialized@@3_NA 0041d461     msvcrtd:utility.obj
 0003:00002464       ?module_local_atexit_table@@3U_onexit_table_t@@A 0041d464     msvcrtd:utility.obj
 0003:00002470       ?module_local_at_quick_exit_table@@3U_onexit_table_t@@A 0041d470     msvcrtd:utility.obj
 0003:0000247c       ?init@?1??_RTC_InitBase@@9@4_NA 0041d47c     msvcrtd:init.obj
 0003:00002480       ?g_tss_cv@@3U_RTL_CONDITION_VARIABLE@@A 0041d480     msvcrtd:thread_safe_statics.obj
 0003:00002484       ?g_tss_event@@3PAXA        0041d484     msvcrtd:thread_safe_statics.obj
 0003:00002488       ?g_tss_mutex@@3U_RTL_CRITICAL_SECTION@@A 0041d488     msvcrtd:thread_safe_statics.obj
 0003:000024a0       ?g_sleep_condition_variable_cs@@3P6GHPAU_RTL_CONDITION_VARIABLE@@PAU_RTL_CRITICAL_SECTION@@K@ZA 0041d4a0     msvcrtd:thread_safe_statics.obj
 0003:000024a4       ?g_wake_all_condition_variable@@3P6GXPAU_RTL_CONDITION_VARIABLE@@@ZA 0041d4a4     msvcrtd:thread_safe_statics.obj
 0003:000024d0       _GS_ExceptionRecord        0041d4d0     msvcrtd:gs_report.obj
 0003:00002520       _GS_ContextRecord          0041d520     msvcrtd:gs_report.obj
 0003:000027ec       ?_RTC_ErrorReportFunc@@3P6AHHPBDH00ZZA 0041d7ec     msvcrtd:userapi.obj
 0003:000027f0       ?_RTC_ErrorReportFuncW@@3P6AHHPB_WH00ZZA 0041d7f0     msvcrtd:userapi.obj
 0003:000027f4       ?mspdb@@3PAUHINSTANCE__@@A 0041d7f4     msvcrtd:pdblkup.obj
 0003:000027f8       ?alreadyTried@?1??GetPdbDll@@YAPAUHINSTANCE__@@XZ@4_NA 0041d7f8     msvcrtd:pdblkup.obj
 0003:000027f9       ?PDBOK@?1??_RTC_GetSrcLine@@YAHPAEPA_WKPAH1K@Z@4_NA 0041d7f9     msvcrtd:pdblkup.obj
 0004:00000370       $R000000                   0041e370     mcf6.res
 0004:000009d8       $R000668                   0041e9d8     mcf6.res
 0004:00000cc0       $R000950                   0041ecc0     mcf6.res
 0004:00000de8       $R000A78                   0041ede8     mcf6.res
 0004:00001c90       $R001920                   0041fc90     mcf6.res
 0004:00002538       $R0021C8                   00420538     mcf6.res
 0004:00002aa0       $R002730                   00420aa0     mcf6.res
 0004:00004748       $R0043D8                   00422748     mcf6.res
 0004:000053f0       $R005080                   004233f0     mcf6.res
 0004:00005758       $R0053E8                   00423758     mcf6.res
 0004:000057e0       $R005470                   004237e0     mcf6.res
 0004:000058f8       $R005588                   004238f8     mcf6.res
 0004:00005da0       $R005A30                   00423da0     mcf6.res
 0004:00006058       $R005CE8                   00424058     mcf6.res
 0004:00006098       $R005D28                   00424098     mcf6.res
